
bomb:     file format elf64-x86-64


Disassembly of section .init:

0000000000000dd0 <_init>:
 dd0:	48 83 ec 08          	sub    $0x8,%rsp
 dd4:	48 8b 05 0d 32 20 00 	mov    0x20320d(%rip),%rax        # 203fe8 <__gmon_start__>
 ddb:	48 85 c0             	test   %rax,%rax
 dde:	74 02                	je     de2 <_init+0x12>
 de0:	ff d0                	callq  *%rax
 de2:	48 83 c4 08          	add    $0x8,%rsp
 de6:	c3                   	retq   

Disassembly of section .plt:

0000000000000df0 <.plt>:
 df0:	ff 35 0a 31 20 00    	pushq  0x20310a(%rip)        # 203f00 <_GLOBAL_OFFSET_TABLE_+0x8>
 df6:	ff 25 0c 31 20 00    	jmpq   *0x20310c(%rip)        # 203f08 <_GLOBAL_OFFSET_TABLE_+0x10>
 dfc:	0f 1f 40 00          	nopl   0x0(%rax)

0000000000000e00 <getenv@plt>:
 e00:	ff 25 0a 31 20 00    	jmpq   *0x20310a(%rip)        # 203f10 <getenv@GLIBC_2.2.5>
 e06:	68 00 00 00 00       	pushq  $0x0
 e0b:	e9 e0 ff ff ff       	jmpq   df0 <.plt>

0000000000000e10 <__errno_location@plt>:
 e10:	ff 25 02 31 20 00    	jmpq   *0x203102(%rip)        # 203f18 <__errno_location@GLIBC_2.2.5>
 e16:	68 01 00 00 00       	pushq  $0x1
 e1b:	e9 d0 ff ff ff       	jmpq   df0 <.plt>

0000000000000e20 <strcpy@plt>:
 e20:	ff 25 fa 30 20 00    	jmpq   *0x2030fa(%rip)        # 203f20 <strcpy@GLIBC_2.2.5>
 e26:	68 02 00 00 00       	pushq  $0x2
 e2b:	e9 c0 ff ff ff       	jmpq   df0 <.plt>

0000000000000e30 <puts@plt>:
 e30:	ff 25 f2 30 20 00    	jmpq   *0x2030f2(%rip)        # 203f28 <puts@GLIBC_2.2.5>
 e36:	68 03 00 00 00       	pushq  $0x3
 e3b:	e9 b0 ff ff ff       	jmpq   df0 <.plt>

0000000000000e40 <write@plt>:
 e40:	ff 25 ea 30 20 00    	jmpq   *0x2030ea(%rip)        # 203f30 <write@GLIBC_2.2.5>
 e46:	68 04 00 00 00       	pushq  $0x4
 e4b:	e9 a0 ff ff ff       	jmpq   df0 <.plt>

0000000000000e50 <__stack_chk_fail@plt>:
 e50:	ff 25 e2 30 20 00    	jmpq   *0x2030e2(%rip)        # 203f38 <__stack_chk_fail@GLIBC_2.4>
 e56:	68 05 00 00 00       	pushq  $0x5
 e5b:	e9 90 ff ff ff       	jmpq   df0 <.plt>

0000000000000e60 <alarm@plt>:
 e60:	ff 25 da 30 20 00    	jmpq   *0x2030da(%rip)        # 203f40 <alarm@GLIBC_2.2.5>
 e66:	68 06 00 00 00       	pushq  $0x6
 e6b:	e9 80 ff ff ff       	jmpq   df0 <.plt>

0000000000000e70 <close@plt>:
 e70:	ff 25 d2 30 20 00    	jmpq   *0x2030d2(%rip)        # 203f48 <close@GLIBC_2.2.5>
 e76:	68 07 00 00 00       	pushq  $0x7
 e7b:	e9 70 ff ff ff       	jmpq   df0 <.plt>

0000000000000e80 <read@plt>:
 e80:	ff 25 ca 30 20 00    	jmpq   *0x2030ca(%rip)        # 203f50 <read@GLIBC_2.2.5>
 e86:	68 08 00 00 00       	pushq  $0x8
 e8b:	e9 60 ff ff ff       	jmpq   df0 <.plt>

0000000000000e90 <fgets@plt>:
 e90:	ff 25 c2 30 20 00    	jmpq   *0x2030c2(%rip)        # 203f58 <fgets@GLIBC_2.2.5>
 e96:	68 09 00 00 00       	pushq  $0x9
 e9b:	e9 50 ff ff ff       	jmpq   df0 <.plt>

0000000000000ea0 <signal@plt>:
 ea0:	ff 25 ba 30 20 00    	jmpq   *0x2030ba(%rip)        # 203f60 <signal@GLIBC_2.2.5>
 ea6:	68 0a 00 00 00       	pushq  $0xa
 eab:	e9 40 ff ff ff       	jmpq   df0 <.plt>

0000000000000eb0 <gethostbyname@plt>:
 eb0:	ff 25 b2 30 20 00    	jmpq   *0x2030b2(%rip)        # 203f68 <gethostbyname@GLIBC_2.2.5>
 eb6:	68 0b 00 00 00       	pushq  $0xb
 ebb:	e9 30 ff ff ff       	jmpq   df0 <.plt>

0000000000000ec0 <__memmove_chk@plt>:
 ec0:	ff 25 aa 30 20 00    	jmpq   *0x2030aa(%rip)        # 203f70 <__memmove_chk@GLIBC_2.3.4>
 ec6:	68 0c 00 00 00       	pushq  $0xc
 ecb:	e9 20 ff ff ff       	jmpq   df0 <.plt>

0000000000000ed0 <strtol@plt>:
 ed0:	ff 25 a2 30 20 00    	jmpq   *0x2030a2(%rip)        # 203f78 <strtol@GLIBC_2.2.5>
 ed6:	68 0d 00 00 00       	pushq  $0xd
 edb:	e9 10 ff ff ff       	jmpq   df0 <.plt>

0000000000000ee0 <fflush@plt>:
 ee0:	ff 25 9a 30 20 00    	jmpq   *0x20309a(%rip)        # 203f80 <fflush@GLIBC_2.2.5>
 ee6:	68 0e 00 00 00       	pushq  $0xe
 eeb:	e9 00 ff ff ff       	jmpq   df0 <.plt>

0000000000000ef0 <__isoc99_sscanf@plt>:
 ef0:	ff 25 92 30 20 00    	jmpq   *0x203092(%rip)        # 203f88 <__isoc99_sscanf@GLIBC_2.7>
 ef6:	68 0f 00 00 00       	pushq  $0xf
 efb:	e9 f0 fe ff ff       	jmpq   df0 <.plt>

0000000000000f00 <__printf_chk@plt>:
 f00:	ff 25 8a 30 20 00    	jmpq   *0x20308a(%rip)        # 203f90 <__printf_chk@GLIBC_2.3.4>
 f06:	68 10 00 00 00       	pushq  $0x10
 f0b:	e9 e0 fe ff ff       	jmpq   df0 <.plt>

0000000000000f10 <fopen@plt>:
 f10:	ff 25 82 30 20 00    	jmpq   *0x203082(%rip)        # 203f98 <fopen@GLIBC_2.2.5>
 f16:	68 11 00 00 00       	pushq  $0x11
 f1b:	e9 d0 fe ff ff       	jmpq   df0 <.plt>

0000000000000f20 <exit@plt>:
 f20:	ff 25 7a 30 20 00    	jmpq   *0x20307a(%rip)        # 203fa0 <exit@GLIBC_2.2.5>
 f26:	68 12 00 00 00       	pushq  $0x12
 f2b:	e9 c0 fe ff ff       	jmpq   df0 <.plt>

0000000000000f30 <connect@plt>:
 f30:	ff 25 72 30 20 00    	jmpq   *0x203072(%rip)        # 203fa8 <connect@GLIBC_2.2.5>
 f36:	68 13 00 00 00       	pushq  $0x13
 f3b:	e9 b0 fe ff ff       	jmpq   df0 <.plt>

0000000000000f40 <__fprintf_chk@plt>:
 f40:	ff 25 6a 30 20 00    	jmpq   *0x20306a(%rip)        # 203fb0 <__fprintf_chk@GLIBC_2.3.4>
 f46:	68 14 00 00 00       	pushq  $0x14
 f4b:	e9 a0 fe ff ff       	jmpq   df0 <.plt>

0000000000000f50 <sleep@plt>:
 f50:	ff 25 62 30 20 00    	jmpq   *0x203062(%rip)        # 203fb8 <sleep@GLIBC_2.2.5>
 f56:	68 15 00 00 00       	pushq  $0x15
 f5b:	e9 90 fe ff ff       	jmpq   df0 <.plt>

0000000000000f60 <__ctype_b_loc@plt>:
 f60:	ff 25 5a 30 20 00    	jmpq   *0x20305a(%rip)        # 203fc0 <__ctype_b_loc@GLIBC_2.3>
 f66:	68 16 00 00 00       	pushq  $0x16
 f6b:	e9 80 fe ff ff       	jmpq   df0 <.plt>

0000000000000f70 <__sprintf_chk@plt>:
 f70:	ff 25 52 30 20 00    	jmpq   *0x203052(%rip)        # 203fc8 <__sprintf_chk@GLIBC_2.3.4>
 f76:	68 17 00 00 00       	pushq  $0x17
 f7b:	e9 70 fe ff ff       	jmpq   df0 <.plt>

0000000000000f80 <socket@plt>:
 f80:	ff 25 4a 30 20 00    	jmpq   *0x20304a(%rip)        # 203fd0 <socket@GLIBC_2.2.5>
 f86:	68 18 00 00 00       	pushq  $0x18
 f8b:	e9 60 fe ff ff       	jmpq   df0 <.plt>

Disassembly of section .plt.got:

0000000000000f90 <__cxa_finalize@plt>:
 f90:	ff 25 62 30 20 00    	jmpq   *0x203062(%rip)        # 203ff8 <__cxa_finalize@GLIBC_2.2.5>
 f96:	66 90                	xchg   %ax,%ax

Disassembly of section .text:

0000000000000fa0 <_start>:
     fa0:	31 ed                	xor    %ebp,%ebp
     fa2:	49 89 d1             	mov    %rdx,%r9
     fa5:	5e                   	pop    %rsi
     fa6:	48 89 e2             	mov    %rsp,%rdx
     fa9:	48 83 e4 f0          	and    $0xfffffffffffffff0,%rsp
     fad:	50                   	push   %rax
     fae:	54                   	push   %rsp
     faf:	4c 8d 05 ca 16 00 00 	lea    0x16ca(%rip),%r8        # 2680 <__libc_csu_fini>
     fb6:	48 8d 0d 53 16 00 00 	lea    0x1653(%rip),%rcx        # 2610 <__libc_csu_init>
     fbd:	48 8d 3d e6 00 00 00 	lea    0xe6(%rip),%rdi        # 10aa <main>
     fc4:	ff 15 16 30 20 00    	callq  *0x203016(%rip)        # 203fe0 <__libc_start_main@GLIBC_2.2.5>
     fca:	f4                   	hlt    
     fcb:	0f 1f 44 00 00       	nopl   0x0(%rax,%rax,1)

0000000000000fd0 <deregister_tm_clones>:
     fd0:	48 8d 3d 89 36 20 00 	lea    0x203689(%rip),%rdi        # 204660 <stdout@@GLIBC_2.2.5>
     fd7:	55                   	push   %rbp
     fd8:	48 8d 05 81 36 20 00 	lea    0x203681(%rip),%rax        # 204660 <stdout@@GLIBC_2.2.5>
     fdf:	48 39 f8             	cmp    %rdi,%rax
     fe2:	48 89 e5             	mov    %rsp,%rbp
     fe5:	74 19                	je     1000 <deregister_tm_clones+0x30>
     fe7:	48 8b 05 ea 2f 20 00 	mov    0x202fea(%rip),%rax        # 203fd8 <_ITM_deregisterTMCloneTable>
     fee:	48 85 c0             	test   %rax,%rax
     ff1:	74 0d                	je     1000 <deregister_tm_clones+0x30>
     ff3:	5d                   	pop    %rbp
     ff4:	ff e0                	jmpq   *%rax
     ff6:	66 2e 0f 1f 84 00 00 	nopw   %cs:0x0(%rax,%rax,1)
     ffd:	00 00 00 
    1000:	5d                   	pop    %rbp
    1001:	c3                   	retq   
    1002:	0f 1f 40 00          	nopl   0x0(%rax)
    1006:	66 2e 0f 1f 84 00 00 	nopw   %cs:0x0(%rax,%rax,1)
    100d:	00 00 00 

0000000000001010 <register_tm_clones>:
    1010:	48 8d 3d 49 36 20 00 	lea    0x203649(%rip),%rdi        # 204660 <stdout@@GLIBC_2.2.5>
    1017:	48 8d 35 42 36 20 00 	lea    0x203642(%rip),%rsi        # 204660 <stdout@@GLIBC_2.2.5>
    101e:	55                   	push   %rbp
    101f:	48 29 fe             	sub    %rdi,%rsi
    1022:	48 89 e5             	mov    %rsp,%rbp
    1025:	48 c1 fe 03          	sar    $0x3,%rsi
    1029:	48 89 f0             	mov    %rsi,%rax
    102c:	48 c1 e8 3f          	shr    $0x3f,%rax
    1030:	48 01 c6             	add    %rax,%rsi
    1033:	48 d1 fe             	sar    %rsi
    1036:	74 18                	je     1050 <register_tm_clones+0x40>
    1038:	48 8b 05 b1 2f 20 00 	mov    0x202fb1(%rip),%rax        # 203ff0 <_ITM_registerTMCloneTable>
    103f:	48 85 c0             	test   %rax,%rax
    1042:	74 0c                	je     1050 <register_tm_clones+0x40>
    1044:	5d                   	pop    %rbp
    1045:	ff e0                	jmpq   *%rax
    1047:	66 0f 1f 84 00 00 00 	nopw   0x0(%rax,%rax,1)
    104e:	00 00 
    1050:	5d                   	pop    %rbp
    1051:	c3                   	retq   
    1052:	0f 1f 40 00          	nopl   0x0(%rax)
    1056:	66 2e 0f 1f 84 00 00 	nopw   %cs:0x0(%rax,%rax,1)
    105d:	00 00 00 

0000000000001060 <__do_global_dtors_aux>:
    1060:	80 3d 21 36 20 00 00 	cmpb   $0x0,0x203621(%rip)        # 204688 <completed.7698>
    1067:	75 2f                	jne    1098 <__do_global_dtors_aux+0x38>
    1069:	48 83 3d 87 2f 20 00 	cmpq   $0x0,0x202f87(%rip)        # 203ff8 <__cxa_finalize@GLIBC_2.2.5>
    1070:	00 
    1071:	55                   	push   %rbp
    1072:	48 89 e5             	mov    %rsp,%rbp
    1075:	74 0c                	je     1083 <__do_global_dtors_aux+0x23>
    1077:	48 8b 3d 8a 2f 20 00 	mov    0x202f8a(%rip),%rdi        # 204008 <__dso_handle>
    107e:	e8 0d ff ff ff       	callq  f90 <__cxa_finalize@plt>
    1083:	e8 48 ff ff ff       	callq  fd0 <deregister_tm_clones>
    1088:	c6 05 f9 35 20 00 01 	movb   $0x1,0x2035f9(%rip)        # 204688 <completed.7698>
    108f:	5d                   	pop    %rbp
    1090:	c3                   	retq   
    1091:	0f 1f 80 00 00 00 00 	nopl   0x0(%rax)
    1098:	f3 c3                	repz retq 
    109a:	66 0f 1f 44 00 00    	nopw   0x0(%rax,%rax,1)

00000000000010a0 <frame_dummy>:
    10a0:	55                   	push   %rbp
    10a1:	48 89 e5             	mov    %rsp,%rbp
    10a4:	5d                   	pop    %rbp
    10a5:	e9 66 ff ff ff       	jmpq   1010 <register_tm_clones>

00000000000010aa <main>:
    10aa:	53                   	push   %rbx
    10ab:	83 ff 01             	cmp    $0x1,%edi
    10ae:	0f 84 f8 00 00 00    	je     11ac <main+0x102>
    10b4:	48 89 f3             	mov    %rsi,%rbx
    10b7:	83 ff 02             	cmp    $0x2,%edi
    10ba:	0f 85 21 01 00 00    	jne    11e1 <main+0x137>
    10c0:	48 8b 7e 08          	mov    0x8(%rsi),%rdi
    10c4:	48 8d 35 d9 15 00 00 	lea    0x15d9(%rip),%rsi        # 26a4 <_IO_stdin_used+0x4>
    10cb:	e8 40 fe ff ff       	callq  f10 <fopen@plt>
    10d0:	48 89 05 c1 35 20 00 	mov    %rax,0x2035c1(%rip)        # 204698 <infile>
    10d7:	48 85 c0             	test   %rax,%rax
    10da:	0f 84 df 00 00 00    	je     11bf <main+0x115>
    10e0:	e8 5d 06 00 00       	callq  1742 <initialize_bomb>
    10e5:	48 8d 3d 3c 16 00 00 	lea    0x163c(%rip),%rdi        # 2728 <_IO_stdin_used+0x88>
    10ec:	e8 3f fd ff ff       	callq  e30 <puts@plt>
    10f1:	48 8d 3d 70 16 00 00 	lea    0x1670(%rip),%rdi        # 2768 <_IO_stdin_used+0xc8>
    10f8:	e8 33 fd ff ff       	callq  e30 <puts@plt>
    10fd:	e8 4c 07 00 00       	callq  184e <read_line>
    1102:	48 89 c7             	mov    %rax,%rdi
    1105:	e8 fa 00 00 00       	callq  1204 <phase_1>
    110a:	e8 83 08 00 00       	callq  1992 <phase_defused>
    110f:	48 8d 3d 82 16 00 00 	lea    0x1682(%rip),%rdi        # 2798 <_IO_stdin_used+0xf8>
    1116:	e8 15 fd ff ff       	callq  e30 <puts@plt>
    111b:	e8 2e 07 00 00       	callq  184e <read_line>
    1120:	48 89 c7             	mov    %rax,%rdi
    1123:	e8 fc 00 00 00       	callq  1224 <phase_2>
    1128:	e8 65 08 00 00       	callq  1992 <phase_defused>
    112d:	48 8d 3d a9 15 00 00 	lea    0x15a9(%rip),%rdi        # 26dd <_IO_stdin_used+0x3d>
    1134:	e8 f7 fc ff ff       	callq  e30 <puts@plt>
    1139:	e8 10 07 00 00       	callq  184e <read_line>
    113e:	48 89 c7             	mov    %rax,%rdi
    1141:	e8 4d 01 00 00       	callq  1293 <phase_3>
    1146:	e8 47 08 00 00       	callq  1992 <phase_defused>
    114b:	48 8d 3d a9 15 00 00 	lea    0x15a9(%rip),%rdi        # 26fb <_IO_stdin_used+0x5b>
    1152:	e8 d9 fc ff ff       	callq  e30 <puts@plt>
    1157:	e8 f2 06 00 00       	callq  184e <read_line>
    115c:	48 89 c7             	mov    %rax,%rdi
    115f:	e8 1c 02 00 00       	callq  1380 <phase_4>
    1164:	e8 29 08 00 00       	callq  1992 <phase_defused>
    1169:	48 8d 3d 58 16 00 00 	lea    0x1658(%rip),%rdi        # 27c8 <_IO_stdin_used+0x128>
    1170:	e8 bb fc ff ff       	callq  e30 <puts@plt>
    1175:	e8 d4 06 00 00       	callq  184e <read_line>
    117a:	48 89 c7             	mov    %rax,%rdi
    117d:	e8 6d 02 00 00       	callq  13ef <phase_5>
    1182:	e8 0b 08 00 00       	callq  1992 <phase_defused>
    1187:	48 8d 3d 7c 15 00 00 	lea    0x157c(%rip),%rdi        # 270a <_IO_stdin_used+0x6a>
    118e:	e8 9d fc ff ff       	callq  e30 <puts@plt>
    1193:	e8 b6 06 00 00       	callq  184e <read_line>
    1198:	48 89 c7             	mov    %rax,%rdi
    119b:	e8 e2 02 00 00       	callq  1482 <phase_6>
    11a0:	e8 ed 07 00 00       	callq  1992 <phase_defused>
    11a5:	b8 00 00 00 00       	mov    $0x0,%eax
    11aa:	5b                   	pop    %rbx
    11ab:	c3                   	retq   
    11ac:	48 8b 05 bd 34 20 00 	mov    0x2034bd(%rip),%rax        # 204670 <stdin@@GLIBC_2.2.5>
    11b3:	48 89 05 de 34 20 00 	mov    %rax,0x2034de(%rip)        # 204698 <infile>
    11ba:	e9 21 ff ff ff       	jmpq   10e0 <main+0x36>
    11bf:	48 8b 4b 08          	mov    0x8(%rbx),%rcx
    11c3:	48 8b 13             	mov    (%rbx),%rdx
    11c6:	48 8d 35 d9 14 00 00 	lea    0x14d9(%rip),%rsi        # 26a6 <_IO_stdin_used+0x6>
    11cd:	bf 01 00 00 00       	mov    $0x1,%edi
    11d2:	e8 29 fd ff ff       	callq  f00 <__printf_chk@plt>
    11d7:	bf 08 00 00 00       	mov    $0x8,%edi
    11dc:	e8 3f fd ff ff       	callq  f20 <exit@plt>
    11e1:	48 8b 16             	mov    (%rsi),%rdx
    11e4:	48 8d 35 d8 14 00 00 	lea    0x14d8(%rip),%rsi        # 26c3 <_IO_stdin_used+0x23>
    11eb:	bf 01 00 00 00       	mov    $0x1,%edi
    11f0:	b8 00 00 00 00       	mov    $0x0,%eax
    11f5:	e8 06 fd ff ff       	callq  f00 <__printf_chk@plt>
    11fa:	bf 08 00 00 00       	mov    $0x8,%edi
    11ff:	e8 1c fd ff ff       	callq  f20 <exit@plt>

0000000000001204 <phase_1>:
    1204:	48 83 ec 08          	sub    $0x8,%rsp
    1208:	48 8d 35 e1 15 00 00 	lea    0x15e1(%rip),%rsi        # 27f0 <_IO_stdin_used+0x150>
    120f:	e8 c7 04 00 00       	callq  16db <strings_not_equal>
    1214:	85 c0                	test   %eax,%eax
    1216:	75 05                	jne    121d <phase_1+0x19>
    1218:	48 83 c4 08          	add    $0x8,%rsp
    121c:	c3                   	retq   
    121d:	e8 c5 05 00 00       	callq  17e7 <explode_bomb>
    1222:	eb f4                	jmp    1218 <phase_1+0x14>

0000000000001224 <phase_2>:
    1224:	55                   	push   %rbp
    1225:	53                   	push   %rbx
    1226:	48 83 ec 28          	sub    $0x28,%rsp
    122a:	64 48 8b 04 25 28 00 	mov    %fs:0x28,%rax
    1231:	00 00 
    1233:	48 89 44 24 18       	mov    %rax,0x18(%rsp)
    1238:	31 c0                	xor    %eax,%eax
    123a:	48 89 e6             	mov    %rsp,%rsi
    123d:	e8 cb 05 00 00       	callq  180d <read_six_numbers>
    1242:	83 3c 24 00          	cmpl   $0x0,(%rsp)
    1246:	75 07                	jne    124f <phase_2+0x2b>
    1248:	83 7c 24 04 01       	cmpl   $0x1,0x4(%rsp)
    124d:	74 05                	je     1254 <phase_2+0x30>
    124f:	e8 93 05 00 00       	callq  17e7 <explode_bomb>
    1254:	48 89 e3             	mov    %rsp,%rbx
    1257:	48 8d 6b 10          	lea    0x10(%rbx),%rbp
    125b:	eb 09                	jmp    1266 <phase_2+0x42>
    125d:	48 83 c3 04          	add    $0x4,%rbx
    1261:	48 39 eb             	cmp    %rbp,%rbx
    1264:	74 11                	je     1277 <phase_2+0x53>
    1266:	8b 43 04             	mov    0x4(%rbx),%eax
    1269:	03 03                	add    (%rbx),%eax
    126b:	39 43 08             	cmp    %eax,0x8(%rbx)
    126e:	74 ed                	je     125d <phase_2+0x39>
    1270:	e8 72 05 00 00       	callq  17e7 <explode_bomb>
    1275:	eb e6                	jmp    125d <phase_2+0x39>
    1277:	48 8b 44 24 18       	mov    0x18(%rsp),%rax
    127c:	64 48 33 04 25 28 00 	xor    %fs:0x28,%rax
    1283:	00 00 
    1285:	75 07                	jne    128e <phase_2+0x6a>
    1287:	48 83 c4 28          	add    $0x28,%rsp
    128b:	5b                   	pop    %rbx
    128c:	5d                   	pop    %rbp
    128d:	c3                   	retq   
    128e:	e8 bd fb ff ff       	callq  e50 <__stack_chk_fail@plt>

0000000000001293 <phase_3>:
    1293:	48 83 ec 18          	sub    $0x18,%rsp
    1297:	64 48 8b 04 25 28 00 	mov    %fs:0x28,%rax
    129e:	00 00 
    12a0:	48 89 44 24 08       	mov    %rax,0x8(%rsp)
    12a5:	31 c0                	xor    %eax,%eax
    12a7:	48 8d 4c 24 04       	lea    0x4(%rsp),%rcx
    12ac:	48 89 e2             	mov    %rsp,%rdx
    12af:	48 8d 35 19 17 00 00 	lea    0x1719(%rip),%rsi        # 29cf <array.3413+0x14f>
    12b6:	e8 35 fc ff ff       	callq  ef0 <__isoc99_sscanf@plt>
    12bb:	83 f8 01             	cmp    $0x1,%eax
    12be:	7e 19                	jle    12d9 <phase_3+0x46>
    12c0:	83 3c 24 07          	cmpl   $0x7,(%rsp)
    12c4:	77 4b                	ja     1311 <phase_3+0x7e>
    12c6:	8b 04 24             	mov    (%rsp),%eax
    12c9:	48 8d 15 90 15 00 00 	lea    0x1590(%rip),%rdx        # 2860 <_IO_stdin_used+0x1c0>
    12d0:	48 63 04 82          	movslq (%rdx,%rax,4),%rax
    12d4:	48 01 d0             	add    %rdx,%rax
    12d7:	ff e0                	jmpq   *%rax
    12d9:	e8 09 05 00 00       	callq  17e7 <explode_bomb>
    12de:	eb e0                	jmp    12c0 <phase_3+0x2d>
    12e0:	b8 39 03 00 00       	mov    $0x339,%eax
    12e5:	eb 3b                	jmp    1322 <phase_3+0x8f>
    12e7:	b8 3c 01 00 00       	mov    $0x13c,%eax
    12ec:	eb 34                	jmp    1322 <phase_3+0x8f>
    12ee:	b8 61 02 00 00       	mov    $0x261,%eax
    12f3:	eb 2d                	jmp    1322 <phase_3+0x8f>
    12f5:	b8 4a 03 00 00       	mov    $0x34a,%eax
    12fa:	eb 26                	jmp    1322 <phase_3+0x8f>
    12fc:	b8 c1 00 00 00       	mov    $0xc1,%eax
    1301:	eb 1f                	jmp    1322 <phase_3+0x8f>
    1303:	b8 11 03 00 00       	mov    $0x311,%eax
    1308:	eb 18                	jmp    1322 <phase_3+0x8f>
    130a:	b8 6d 03 00 00       	mov    $0x36d,%eax
    130f:	eb 11                	jmp    1322 <phase_3+0x8f>
    1311:	e8 d1 04 00 00       	callq  17e7 <explode_bomb>
    1316:	b8 00 00 00 00       	mov    $0x0,%eax
    131b:	eb 05                	jmp    1322 <phase_3+0x8f>
    131d:	b8 48 02 00 00       	mov    $0x248,%eax
    1322:	39 44 24 04          	cmp    %eax,0x4(%rsp)
    1326:	74 05                	je     132d <phase_3+0x9a>
    1328:	e8 ba 04 00 00       	callq  17e7 <explode_bomb>
    132d:	48 8b 44 24 08       	mov    0x8(%rsp),%rax
    1332:	64 48 33 04 25 28 00 	xor    %fs:0x28,%rax
    1339:	00 00 
    133b:	75 05                	jne    1342 <phase_3+0xaf>
    133d:	48 83 c4 18          	add    $0x18,%rsp
    1341:	c3                   	retq   
    1342:	e8 09 fb ff ff       	callq  e50 <__stack_chk_fail@plt>

0000000000001347 <func4>:
    1347:	b8 00 00 00 00       	mov    $0x0,%eax
    134c:	85 ff                	test   %edi,%edi
    134e:	7e 07                	jle    1357 <func4+0x10>
    1350:	89 f0                	mov    %esi,%eax
    1352:	83 ff 01             	cmp    $0x1,%edi
    1355:	75 02                	jne    1359 <func4+0x12>
    1357:	f3 c3                	repz retq 
    1359:	41 54                	push   %r12
    135b:	55                   	push   %rbp
    135c:	53                   	push   %rbx
    135d:	41 89 f4             	mov    %esi,%r12d
    1360:	89 fb                	mov    %edi,%ebx
    1362:	8d 7f ff             	lea    -0x1(%rdi),%edi
    1365:	e8 dd ff ff ff       	callq  1347 <func4>
    136a:	42 8d 2c 20          	lea    (%rax,%r12,1),%ebp
    136e:	8d 7b fe             	lea    -0x2(%rbx),%edi
    1371:	44 89 e6             	mov    %r12d,%esi
    1374:	e8 ce ff ff ff       	callq  1347 <func4>
    1379:	01 e8                	add    %ebp,%eax
    137b:	5b                   	pop    %rbx
    137c:	5d                   	pop    %rbp
    137d:	41 5c                	pop    %r12
    137f:	c3                   	retq   

0000000000001380 <phase_4>:
    1380:	48 83 ec 18          	sub    $0x18,%rsp
    1384:	64 48 8b 04 25 28 00 	mov    %fs:0x28,%rax
    138b:	00 00 
    138d:	48 89 44 24 08       	mov    %rax,0x8(%rsp)
    1392:	31 c0                	xor    %eax,%eax
    1394:	48 89 e1             	mov    %rsp,%rcx
    1397:	48 8d 54 24 04       	lea    0x4(%rsp),%rdx
    139c:	48 8d 35 2c 16 00 00 	lea    0x162c(%rip),%rsi        # 29cf <array.3413+0x14f>
    13a3:	e8 48 fb ff ff       	callq  ef0 <__isoc99_sscanf@plt>
    13a8:	83 f8 02             	cmp    $0x2,%eax
    13ab:	75 0b                	jne    13b8 <phase_4+0x38>
    13ad:	8b 04 24             	mov    (%rsp),%eax
    13b0:	83 e8 02             	sub    $0x2,%eax
    13b3:	83 f8 02             	cmp    $0x2,%eax
    13b6:	76 05                	jbe    13bd <phase_4+0x3d>
    13b8:	e8 2a 04 00 00       	callq  17e7 <explode_bomb>
    13bd:	8b 34 24             	mov    (%rsp),%esi
    13c0:	bf 05 00 00 00       	mov    $0x5,%edi
    13c5:	e8 7d ff ff ff       	callq  1347 <func4>
    13ca:	39 44 24 04          	cmp    %eax,0x4(%rsp)
    13ce:	74 05                	je     13d5 <phase_4+0x55>
    13d0:	e8 12 04 00 00       	callq  17e7 <explode_bomb>
    13d5:	48 8b 44 24 08       	mov    0x8(%rsp),%rax
    13da:	64 48 33 04 25 28 00 	xor    %fs:0x28,%rax
    13e1:	00 00 
    13e3:	75 05                	jne    13ea <phase_4+0x6a>
    13e5:	48 83 c4 18          	add    $0x18,%rsp
    13e9:	c3                   	retq   
    13ea:	e8 61 fa ff ff       	callq  e50 <__stack_chk_fail@plt>

00000000000013ef <phase_5>:
    13ef:	48 83 ec 18          	sub    $0x18,%rsp
    13f3:	64 48 8b 04 25 28 00 	mov    %fs:0x28,%rax
    13fa:	00 00 
    13fc:	48 89 44 24 08       	mov    %rax,0x8(%rsp)
    1401:	31 c0                	xor    %eax,%eax
    1403:	48 8d 4c 24 04       	lea    0x4(%rsp),%rcx
    1408:	48 89 e2             	mov    %rsp,%rdx
    140b:	48 8d 35 bd 15 00 00 	lea    0x15bd(%rip),%rsi        # 29cf <array.3413+0x14f>
    1412:	e8 d9 fa ff ff       	callq  ef0 <__isoc99_sscanf@plt>
    1417:	83 f8 01             	cmp    $0x1,%eax
    141a:	7e 5a                	jle    1476 <phase_5+0x87>
    141c:	8b 04 24             	mov    (%rsp),%eax
    141f:	83 e0 0f             	and    $0xf,%eax
    1422:	89 04 24             	mov    %eax,(%rsp)
    1425:	83 f8 0f             	cmp    $0xf,%eax
    1428:	74 32                	je     145c <phase_5+0x6d>
    142a:	b9 00 00 00 00       	mov    $0x0,%ecx
    142f:	ba 00 00 00 00       	mov    $0x0,%edx
    1434:	48 8d 35 45 14 00 00 	lea    0x1445(%rip),%rsi        # 2880 <array.3413>
    143b:	83 c2 01             	add    $0x1,%edx
    143e:	48 98                	cltq   
    1440:	8b 04 86             	mov    (%rsi,%rax,4),%eax
    1443:	01 c1                	add    %eax,%ecx
    1445:	83 f8 0f             	cmp    $0xf,%eax
    1448:	75 f1                	jne    143b <phase_5+0x4c>
    144a:	c7 04 24 0f 00 00 00 	movl   $0xf,(%rsp)
    1451:	83 fa 0f             	cmp    $0xf,%edx
    1454:	75 06                	jne    145c <phase_5+0x6d>
    1456:	39 4c 24 04          	cmp    %ecx,0x4(%rsp)
    145a:	74 05                	je     1461 <phase_5+0x72>
    145c:	e8 86 03 00 00       	callq  17e7 <explode_bomb>
    1461:	48 8b 44 24 08       	mov    0x8(%rsp),%rax
    1466:	64 48 33 04 25 28 00 	xor    %fs:0x28,%rax
    146d:	00 00 
    146f:	75 0c                	jne    147d <phase_5+0x8e>
    1471:	48 83 c4 18          	add    $0x18,%rsp
    1475:	c3                   	retq   
    1476:	e8 6c 03 00 00       	callq  17e7 <explode_bomb>
    147b:	eb 9f                	jmp    141c <phase_5+0x2d>
    147d:	e8 ce f9 ff ff       	callq  e50 <__stack_chk_fail@plt>

0000000000001482 <phase_6>:
    1482:	41 55                	push   %r13
    1484:	41 54                	push   %r12
    1486:	55                   	push   %rbp
    1487:	53                   	push   %rbx
    1488:	48 83 ec 68          	sub    $0x68,%rsp
    148c:	64 48 8b 04 25 28 00 	mov    %fs:0x28,%rax
    1493:	00 00 
    1495:	48 89 44 24 58       	mov    %rax,0x58(%rsp)
    149a:	31 c0                	xor    %eax,%eax
    149c:	49 89 e4             	mov    %rsp,%r12
    149f:	4c 89 e6             	mov    %r12,%rsi
    14a2:	e8 66 03 00 00       	callq  180d <read_six_numbers>
    14a7:	41 bd 00 00 00 00    	mov    $0x0,%r13d
    14ad:	eb 25                	jmp    14d4 <phase_6+0x52>
    14af:	e8 33 03 00 00       	callq  17e7 <explode_bomb>
    14b4:	eb 2d                	jmp    14e3 <phase_6+0x61>
    14b6:	83 c3 01             	add    $0x1,%ebx
    14b9:	83 fb 05             	cmp    $0x5,%ebx
    14bc:	7f 12                	jg     14d0 <phase_6+0x4e>
    14be:	48 63 c3             	movslq %ebx,%rax
    14c1:	8b 04 84             	mov    (%rsp,%rax,4),%eax
    14c4:	39 45 00             	cmp    %eax,0x0(%rbp)
    14c7:	75 ed                	jne    14b6 <phase_6+0x34>
    14c9:	e8 19 03 00 00       	callq  17e7 <explode_bomb>
    14ce:	eb e6                	jmp    14b6 <phase_6+0x34>
    14d0:	49 83 c4 04          	add    $0x4,%r12
    14d4:	4c 89 e5             	mov    %r12,%rbp
    14d7:	41 8b 04 24          	mov    (%r12),%eax
    14db:	83 e8 01             	sub    $0x1,%eax
    14de:	83 f8 05             	cmp    $0x5,%eax
    14e1:	77 cc                	ja     14af <phase_6+0x2d>
    14e3:	41 83 c5 01          	add    $0x1,%r13d
    14e7:	41 83 fd 06          	cmp    $0x6,%r13d
    14eb:	74 35                	je     1522 <phase_6+0xa0>
    14ed:	44 89 eb             	mov    %r13d,%ebx
    14f0:	eb cc                	jmp    14be <phase_6+0x3c>
    14f2:	48 8b 52 08          	mov    0x8(%rdx),%rdx
    14f6:	83 c0 01             	add    $0x1,%eax
    14f9:	39 c8                	cmp    %ecx,%eax
    14fb:	75 f5                	jne    14f2 <phase_6+0x70>
    14fd:	48 89 54 f4 20       	mov    %rdx,0x20(%rsp,%rsi,8)
    1502:	48 83 c6 01          	add    $0x1,%rsi
    1506:	48 83 fe 06          	cmp    $0x6,%rsi
    150a:	74 1d                	je     1529 <phase_6+0xa7>
    150c:	8b 0c b4             	mov    (%rsp,%rsi,4),%ecx
    150f:	b8 01 00 00 00       	mov    $0x1,%eax
    1514:	48 8d 15 e5 2c 20 00 	lea    0x202ce5(%rip),%rdx        # 204200 <node1>
    151b:	83 f9 01             	cmp    $0x1,%ecx
    151e:	7f d2                	jg     14f2 <phase_6+0x70>
    1520:	eb db                	jmp    14fd <phase_6+0x7b>
    1522:	be 00 00 00 00       	mov    $0x0,%esi
    1527:	eb e3                	jmp    150c <phase_6+0x8a>
    1529:	48 8b 5c 24 20       	mov    0x20(%rsp),%rbx
    152e:	48 8b 44 24 28       	mov    0x28(%rsp),%rax
    1533:	48 89 43 08          	mov    %rax,0x8(%rbx)
    1537:	48 8b 54 24 30       	mov    0x30(%rsp),%rdx
    153c:	48 89 50 08          	mov    %rdx,0x8(%rax)
    1540:	48 8b 44 24 38       	mov    0x38(%rsp),%rax
    1545:	48 89 42 08          	mov    %rax,0x8(%rdx)
    1549:	48 8b 54 24 40       	mov    0x40(%rsp),%rdx
    154e:	48 89 50 08          	mov    %rdx,0x8(%rax)
    1552:	48 8b 44 24 48       	mov    0x48(%rsp),%rax
    1557:	48 89 42 08          	mov    %rax,0x8(%rdx)
    155b:	48 c7 40 08 00 00 00 	movq   $0x0,0x8(%rax)
    1562:	00 
    1563:	bd 05 00 00 00       	mov    $0x5,%ebp
    1568:	eb 09                	jmp    1573 <phase_6+0xf1>
    156a:	48 8b 5b 08          	mov    0x8(%rbx),%rbx
    156e:	83 ed 01             	sub    $0x1,%ebp
    1571:	74 11                	je     1584 <phase_6+0x102>
    1573:	48 8b 43 08          	mov    0x8(%rbx),%rax
    1577:	8b 00                	mov    (%rax),%eax
    1579:	39 03                	cmp    %eax,(%rbx)
    157b:	7e ed                	jle    156a <phase_6+0xe8>
    157d:	e8 65 02 00 00       	callq  17e7 <explode_bomb>
    1582:	eb e6                	jmp    156a <phase_6+0xe8>
    1584:	48 8b 44 24 58       	mov    0x58(%rsp),%rax
    1589:	64 48 33 04 25 28 00 	xor    %fs:0x28,%rax
    1590:	00 00 
    1592:	75 0b                	jne    159f <phase_6+0x11d>
    1594:	48 83 c4 68          	add    $0x68,%rsp
    1598:	5b                   	pop    %rbx
    1599:	5d                   	pop    %rbp
    159a:	41 5c                	pop    %r12
    159c:	41 5d                	pop    %r13
    159e:	c3                   	retq   
    159f:	e8 ac f8 ff ff       	callq  e50 <__stack_chk_fail@plt>

00000000000015a4 <fun7>:
    15a4:	48 85 ff             	test   %rdi,%rdi
    15a7:	74 34                	je     15dd <fun7+0x39>
    15a9:	48 83 ec 08          	sub    $0x8,%rsp
    15ad:	8b 17                	mov    (%rdi),%edx
    15af:	39 f2                	cmp    %esi,%edx
    15b1:	7f 0e                	jg     15c1 <fun7+0x1d>
    15b3:	b8 00 00 00 00       	mov    $0x0,%eax
    15b8:	39 f2                	cmp    %esi,%edx
    15ba:	75 12                	jne    15ce <fun7+0x2a>
    15bc:	48 83 c4 08          	add    $0x8,%rsp
    15c0:	c3                   	retq   
    15c1:	48 8b 7f 08          	mov    0x8(%rdi),%rdi
    15c5:	e8 da ff ff ff       	callq  15a4 <fun7>
    15ca:	01 c0                	add    %eax,%eax
    15cc:	eb ee                	jmp    15bc <fun7+0x18>
    15ce:	48 8b 7f 10          	mov    0x10(%rdi),%rdi
    15d2:	e8 cd ff ff ff       	callq  15a4 <fun7>
    15d7:	8d 44 00 01          	lea    0x1(%rax,%rax,1),%eax
    15db:	eb df                	jmp    15bc <fun7+0x18>
    15dd:	b8 ff ff ff ff       	mov    $0xffffffff,%eax
    15e2:	c3                   	retq   

00000000000015e3 <secret_phase>:
    15e3:	53                   	push   %rbx
    15e4:	e8 65 02 00 00       	callq  184e <read_line>
    15e9:	ba 0a 00 00 00       	mov    $0xa,%edx
    15ee:	be 00 00 00 00       	mov    $0x0,%esi
    15f3:	48 89 c7             	mov    %rax,%rdi
    15f6:	e8 d5 f8 ff ff       	callq  ed0 <strtol@plt>
    15fb:	48 89 c3             	mov    %rax,%rbx
    15fe:	8d 40 ff             	lea    -0x1(%rax),%eax
    1601:	3d e8 03 00 00       	cmp    $0x3e8,%eax
    1606:	77 25                	ja     162d <secret_phase+0x4a>
    1608:	89 de                	mov    %ebx,%esi
    160a:	48 8d 3d 0f 2b 20 00 	lea    0x202b0f(%rip),%rdi        # 204120 <n1>
    1611:	e8 8e ff ff ff       	callq  15a4 <fun7>
    1616:	85 c0                	test   %eax,%eax
    1618:	75 1a                	jne    1634 <secret_phase+0x51>
    161a:	48 8d 3d 07 12 00 00 	lea    0x1207(%rip),%rdi        # 2828 <_IO_stdin_used+0x188>
    1621:	e8 0a f8 ff ff       	callq  e30 <puts@plt>
    1626:	e8 67 03 00 00       	callq  1992 <phase_defused>
    162b:	5b                   	pop    %rbx
    162c:	c3                   	retq   
    162d:	e8 b5 01 00 00       	callq  17e7 <explode_bomb>
    1632:	eb d4                	jmp    1608 <secret_phase+0x25>
    1634:	e8 ae 01 00 00       	callq  17e7 <explode_bomb>
    1639:	eb df                	jmp    161a <secret_phase+0x37>

000000000000163b <sig_handler>:
    163b:	48 83 ec 08          	sub    $0x8,%rsp
    163f:	48 8d 3d 7a 12 00 00 	lea    0x127a(%rip),%rdi        # 28c0 <array.3413+0x40>
    1646:	e8 e5 f7 ff ff       	callq  e30 <puts@plt>
    164b:	bf 03 00 00 00       	mov    $0x3,%edi
    1650:	e8 fb f8 ff ff       	callq  f50 <sleep@plt>
    1655:	48 8d 35 26 13 00 00 	lea    0x1326(%rip),%rsi        # 2982 <array.3413+0x102>
    165c:	bf 01 00 00 00       	mov    $0x1,%edi
    1661:	b8 00 00 00 00       	mov    $0x0,%eax
    1666:	e8 95 f8 ff ff       	callq  f00 <__printf_chk@plt>
    166b:	48 8b 3d ee 2f 20 00 	mov    0x202fee(%rip),%rdi        # 204660 <stdout@@GLIBC_2.2.5>
    1672:	e8 69 f8 ff ff       	callq  ee0 <fflush@plt>
    1677:	bf 01 00 00 00       	mov    $0x1,%edi
    167c:	e8 cf f8 ff ff       	callq  f50 <sleep@plt>
    1681:	48 8d 3d 02 13 00 00 	lea    0x1302(%rip),%rdi        # 298a <array.3413+0x10a>
    1688:	e8 a3 f7 ff ff       	callq  e30 <puts@plt>
    168d:	bf 10 00 00 00       	mov    $0x10,%edi
    1692:	e8 89 f8 ff ff       	callq  f20 <exit@plt>

0000000000001697 <invalid_phase>:
    1697:	48 83 ec 08          	sub    $0x8,%rsp
    169b:	48 89 fa             	mov    %rdi,%rdx
    169e:	48 8d 35 ed 12 00 00 	lea    0x12ed(%rip),%rsi        # 2992 <array.3413+0x112>
    16a5:	bf 01 00 00 00       	mov    $0x1,%edi
    16aa:	b8 00 00 00 00       	mov    $0x0,%eax
    16af:	e8 4c f8 ff ff       	callq  f00 <__printf_chk@plt>
    16b4:	bf 08 00 00 00       	mov    $0x8,%edi
    16b9:	e8 62 f8 ff ff       	callq  f20 <exit@plt>

00000000000016be <string_length>:
    16be:	80 3f 00             	cmpb   $0x0,(%rdi)
    16c1:	74 12                	je     16d5 <string_length+0x17>
    16c3:	48 89 fa             	mov    %rdi,%rdx
    16c6:	48 83 c2 01          	add    $0x1,%rdx
    16ca:	89 d0                	mov    %edx,%eax
    16cc:	29 f8                	sub    %edi,%eax
    16ce:	80 3a 00             	cmpb   $0x0,(%rdx)
    16d1:	75 f3                	jne    16c6 <string_length+0x8>
    16d3:	f3 c3                	repz retq 
    16d5:	b8 00 00 00 00       	mov    $0x0,%eax
    16da:	c3                   	retq   

00000000000016db <strings_not_equal>:
    16db:	41 54                	push   %r12
    16dd:	55                   	push   %rbp
    16de:	53                   	push   %rbx
    16df:	48 89 fb             	mov    %rdi,%rbx
    16e2:	48 89 f5             	mov    %rsi,%rbp
    16e5:	e8 d4 ff ff ff       	callq  16be <string_length>
    16ea:	41 89 c4             	mov    %eax,%r12d
    16ed:	48 89 ef             	mov    %rbp,%rdi
    16f0:	e8 c9 ff ff ff       	callq  16be <string_length>
    16f5:	ba 01 00 00 00       	mov    $0x1,%edx
    16fa:	41 39 c4             	cmp    %eax,%r12d
    16fd:	74 07                	je     1706 <strings_not_equal+0x2b>
    16ff:	89 d0                	mov    %edx,%eax
    1701:	5b                   	pop    %rbx
    1702:	5d                   	pop    %rbp
    1703:	41 5c                	pop    %r12
    1705:	c3                   	retq   
    1706:	0f b6 03             	movzbl (%rbx),%eax
    1709:	84 c0                	test   %al,%al
    170b:	74 27                	je     1734 <strings_not_equal+0x59>
    170d:	3a 45 00             	cmp    0x0(%rbp),%al
    1710:	75 29                	jne    173b <strings_not_equal+0x60>
    1712:	48 83 c3 01          	add    $0x1,%rbx
    1716:	48 83 c5 01          	add    $0x1,%rbp
    171a:	0f b6 03             	movzbl (%rbx),%eax
    171d:	84 c0                	test   %al,%al
    171f:	74 0c                	je     172d <strings_not_equal+0x52>
    1721:	38 45 00             	cmp    %al,0x0(%rbp)
    1724:	74 ec                	je     1712 <strings_not_equal+0x37>
    1726:	ba 01 00 00 00       	mov    $0x1,%edx
    172b:	eb d2                	jmp    16ff <strings_not_equal+0x24>
    172d:	ba 00 00 00 00       	mov    $0x0,%edx
    1732:	eb cb                	jmp    16ff <strings_not_equal+0x24>
    1734:	ba 00 00 00 00       	mov    $0x0,%edx
    1739:	eb c4                	jmp    16ff <strings_not_equal+0x24>
    173b:	ba 01 00 00 00       	mov    $0x1,%edx
    1740:	eb bd                	jmp    16ff <strings_not_equal+0x24>

0000000000001742 <initialize_bomb>:
    1742:	48 83 ec 08          	sub    $0x8,%rsp
    1746:	48 8d 35 ee fe ff ff 	lea    -0x112(%rip),%rsi        # 163b <sig_handler>
    174d:	bf 02 00 00 00       	mov    $0x2,%edi
    1752:	e8 49 f7 ff ff       	callq  ea0 <signal@plt>
    1757:	48 83 c4 08          	add    $0x8,%rsp
    175b:	c3                   	retq   

000000000000175c <initialize_bomb_solve>:
    175c:	f3 c3                	repz retq 

000000000000175e <blank_line>:
    175e:	55                   	push   %rbp
    175f:	53                   	push   %rbx
    1760:	48 83 ec 08          	sub    $0x8,%rsp
    1764:	48 89 fd             	mov    %rdi,%rbp
    1767:	0f b6 5d 00          	movzbl 0x0(%rbp),%ebx
    176b:	84 db                	test   %bl,%bl
    176d:	74 1e                	je     178d <blank_line+0x2f>
    176f:	e8 ec f7 ff ff       	callq  f60 <__ctype_b_loc@plt>
    1774:	48 83 c5 01          	add    $0x1,%rbp
    1778:	48 0f be db          	movsbq %bl,%rbx
    177c:	48 8b 00             	mov    (%rax),%rax
    177f:	f6 44 58 01 20       	testb  $0x20,0x1(%rax,%rbx,2)
    1784:	75 e1                	jne    1767 <blank_line+0x9>
    1786:	b8 00 00 00 00       	mov    $0x0,%eax
    178b:	eb 05                	jmp    1792 <blank_line+0x34>
    178d:	b8 01 00 00 00       	mov    $0x1,%eax
    1792:	48 83 c4 08          	add    $0x8,%rsp
    1796:	5b                   	pop    %rbx
    1797:	5d                   	pop    %rbp
    1798:	c3                   	retq   

0000000000001799 <skip>:
    1799:	55                   	push   %rbp
    179a:	53                   	push   %rbx
    179b:	48 83 ec 08          	sub    $0x8,%rsp
    179f:	48 8d 2d fa 2e 20 00 	lea    0x202efa(%rip),%rbp        # 2046a0 <input_strings>
    17a6:	48 63 05 e3 2e 20 00 	movslq 0x202ee3(%rip),%rax        # 204690 <num_input_strings>
    17ad:	48 8d 3c 80          	lea    (%rax,%rax,4),%rdi
    17b1:	48 c1 e7 04          	shl    $0x4,%rdi
    17b5:	48 01 ef             	add    %rbp,%rdi
    17b8:	48 8b 15 d9 2e 20 00 	mov    0x202ed9(%rip),%rdx        # 204698 <infile>
    17bf:	be 50 00 00 00       	mov    $0x50,%esi
    17c4:	e8 c7 f6 ff ff       	callq  e90 <fgets@plt>
    17c9:	48 89 c3             	mov    %rax,%rbx
    17cc:	48 85 c0             	test   %rax,%rax
    17cf:	74 0c                	je     17dd <skip+0x44>
    17d1:	48 89 c7             	mov    %rax,%rdi
    17d4:	e8 85 ff ff ff       	callq  175e <blank_line>
    17d9:	85 c0                	test   %eax,%eax
    17db:	75 c9                	jne    17a6 <skip+0xd>
    17dd:	48 89 d8             	mov    %rbx,%rax
    17e0:	48 83 c4 08          	add    $0x8,%rsp
    17e4:	5b                   	pop    %rbx
    17e5:	5d                   	pop    %rbp
    17e6:	c3                   	retq   

00000000000017e7 <explode_bomb>:
    17e7:	48 83 ec 08          	sub    $0x8,%rsp
    17eb:	48 8d 3d b1 11 00 00 	lea    0x11b1(%rip),%rdi        # 29a3 <array.3413+0x123>
    17f2:	e8 39 f6 ff ff       	callq  e30 <puts@plt>
    17f7:	48 8d 3d ae 11 00 00 	lea    0x11ae(%rip),%rdi        # 29ac <array.3413+0x12c>
    17fe:	e8 2d f6 ff ff       	callq  e30 <puts@plt>
    1803:	bf 08 00 00 00       	mov    $0x8,%edi
    1808:	e8 13 f7 ff ff       	callq  f20 <exit@plt>

000000000000180d <read_six_numbers>:
    180d:	48 83 ec 08          	sub    $0x8,%rsp
    1811:	48 89 f2             	mov    %rsi,%rdx
    1814:	48 8d 4e 04          	lea    0x4(%rsi),%rcx
    1818:	48 8d 46 14          	lea    0x14(%rsi),%rax
    181c:	50                   	push   %rax
    181d:	48 8d 46 10          	lea    0x10(%rsi),%rax
    1821:	50                   	push   %rax
    1822:	4c 8d 4e 0c          	lea    0xc(%rsi),%r9
    1826:	4c 8d 46 08          	lea    0x8(%rsi),%r8
    182a:	48 8d 35 92 11 00 00 	lea    0x1192(%rip),%rsi        # 29c3 <array.3413+0x143>
    1831:	b8 00 00 00 00       	mov    $0x0,%eax
    1836:	e8 b5 f6 ff ff       	callq  ef0 <__isoc99_sscanf@plt>
    183b:	48 83 c4 10          	add    $0x10,%rsp
    183f:	83 f8 05             	cmp    $0x5,%eax
    1842:	7e 05                	jle    1849 <read_six_numbers+0x3c>
    1844:	48 83 c4 08          	add    $0x8,%rsp
    1848:	c3                   	retq   
    1849:	e8 99 ff ff ff       	callq  17e7 <explode_bomb>

000000000000184e <read_line>:
    184e:	48 83 ec 08          	sub    $0x8,%rsp
    1852:	b8 00 00 00 00       	mov    $0x0,%eax
    1857:	e8 3d ff ff ff       	callq  1799 <skip>
    185c:	48 85 c0             	test   %rax,%rax
    185f:	74 6f                	je     18d0 <read_line+0x82>
    1861:	8b 35 29 2e 20 00    	mov    0x202e29(%rip),%esi        # 204690 <num_input_strings>
    1867:	48 63 c6             	movslq %esi,%rax
    186a:	48 8d 14 80          	lea    (%rax,%rax,4),%rdx
    186e:	48 c1 e2 04          	shl    $0x4,%rdx
    1872:	48 8d 05 27 2e 20 00 	lea    0x202e27(%rip),%rax        # 2046a0 <input_strings>
    1879:	48 01 c2             	add    %rax,%rdx
    187c:	48 c7 c1 ff ff ff ff 	mov    $0xffffffffffffffff,%rcx
    1883:	b8 00 00 00 00       	mov    $0x0,%eax
    1888:	48 89 d7             	mov    %rdx,%rdi
    188b:	f2 ae                	repnz scas %es:(%rdi),%al
    188d:	48 f7 d1             	not    %rcx
    1890:	48 83 e9 01          	sub    $0x1,%rcx
    1894:	83 f9 4e             	cmp    $0x4e,%ecx
    1897:	0f 8f ab 00 00 00    	jg     1948 <read_line+0xfa>
    189d:	83 e9 01             	sub    $0x1,%ecx
    18a0:	48 63 c9             	movslq %ecx,%rcx
    18a3:	48 63 c6             	movslq %esi,%rax
    18a6:	48 8d 04 80          	lea    (%rax,%rax,4),%rax
    18aa:	48 c1 e0 04          	shl    $0x4,%rax
    18ae:	48 89 c7             	mov    %rax,%rdi
    18b1:	48 8d 05 e8 2d 20 00 	lea    0x202de8(%rip),%rax        # 2046a0 <input_strings>
    18b8:	48 01 f8             	add    %rdi,%rax
    18bb:	c6 04 08 00          	movb   $0x0,(%rax,%rcx,1)
    18bf:	83 c6 01             	add    $0x1,%esi
    18c2:	89 35 c8 2d 20 00    	mov    %esi,0x202dc8(%rip)        # 204690 <num_input_strings>
    18c8:	48 89 d0             	mov    %rdx,%rax
    18cb:	48 83 c4 08          	add    $0x8,%rsp
    18cf:	c3                   	retq   
    18d0:	48 8b 05 99 2d 20 00 	mov    0x202d99(%rip),%rax        # 204670 <stdin@@GLIBC_2.2.5>
    18d7:	48 39 05 ba 2d 20 00 	cmp    %rax,0x202dba(%rip)        # 204698 <infile>
    18de:	74 1b                	je     18fb <read_line+0xad>
    18e0:	48 8d 3d 0c 11 00 00 	lea    0x110c(%rip),%rdi        # 29f3 <array.3413+0x173>
    18e7:	e8 14 f5 ff ff       	callq  e00 <getenv@plt>
    18ec:	48 85 c0             	test   %rax,%rax
    18ef:	74 20                	je     1911 <read_line+0xc3>
    18f1:	bf 00 00 00 00       	mov    $0x0,%edi
    18f6:	e8 25 f6 ff ff       	callq  f20 <exit@plt>
    18fb:	48 8d 3d d3 10 00 00 	lea    0x10d3(%rip),%rdi        # 29d5 <array.3413+0x155>
    1902:	e8 29 f5 ff ff       	callq  e30 <puts@plt>
    1907:	bf 08 00 00 00       	mov    $0x8,%edi
    190c:	e8 0f f6 ff ff       	callq  f20 <exit@plt>
    1911:	48 8b 05 58 2d 20 00 	mov    0x202d58(%rip),%rax        # 204670 <stdin@@GLIBC_2.2.5>
    1918:	48 89 05 79 2d 20 00 	mov    %rax,0x202d79(%rip)        # 204698 <infile>
    191f:	b8 00 00 00 00       	mov    $0x0,%eax
    1924:	e8 70 fe ff ff       	callq  1799 <skip>
    1929:	48 85 c0             	test   %rax,%rax
    192c:	0f 85 2f ff ff ff    	jne    1861 <read_line+0x13>
    1932:	48 8d 3d 9c 10 00 00 	lea    0x109c(%rip),%rdi        # 29d5 <array.3413+0x155>
    1939:	e8 f2 f4 ff ff       	callq  e30 <puts@plt>
    193e:	bf 00 00 00 00       	mov    $0x0,%edi
    1943:	e8 d8 f5 ff ff       	callq  f20 <exit@plt>
    1948:	48 8d 3d af 10 00 00 	lea    0x10af(%rip),%rdi        # 29fe <array.3413+0x17e>
    194f:	e8 dc f4 ff ff       	callq  e30 <puts@plt>
    1954:	8b 05 36 2d 20 00    	mov    0x202d36(%rip),%eax        # 204690 <num_input_strings>
    195a:	8d 50 01             	lea    0x1(%rax),%edx
    195d:	89 15 2d 2d 20 00    	mov    %edx,0x202d2d(%rip)        # 204690 <num_input_strings>
    1963:	48 98                	cltq   
    1965:	48 6b c0 50          	imul   $0x50,%rax,%rax
    1969:	48 8d 15 30 2d 20 00 	lea    0x202d30(%rip),%rdx        # 2046a0 <input_strings>
    1970:	48 be 2a 2a 2a 74 72 	movabs $0x636e7572742a2a2a,%rsi
    1977:	75 6e 63 
    197a:	48 bf 61 74 65 64 2a 	movabs $0x2a2a2a64657461,%rdi
    1981:	2a 2a 00 
    1984:	48 89 34 02          	mov    %rsi,(%rdx,%rax,1)
    1988:	48 89 7c 02 08       	mov    %rdi,0x8(%rdx,%rax,1)
    198d:	e8 55 fe ff ff       	callq  17e7 <explode_bomb>

0000000000001992 <phase_defused>:
    1992:	48 83 ec 78          	sub    $0x78,%rsp
    1996:	64 48 8b 04 25 28 00 	mov    %fs:0x28,%rax
    199d:	00 00 
    199f:	48 89 44 24 68       	mov    %rax,0x68(%rsp)
    19a4:	31 c0                	xor    %eax,%eax
    19a6:	83 3d e3 2c 20 00 06 	cmpl   $0x6,0x202ce3(%rip)        # 204690 <num_input_strings>
    19ad:	74 15                	je     19c4 <phase_defused+0x32>
    19af:	48 8b 44 24 68       	mov    0x68(%rsp),%rax
    19b4:	64 48 33 04 25 28 00 	xor    %fs:0x28,%rax
    19bb:	00 00 
    19bd:	75 73                	jne    1a32 <phase_defused+0xa0>
    19bf:	48 83 c4 78          	add    $0x78,%rsp
    19c3:	c3                   	retq   
    19c4:	48 8d 4c 24 0c       	lea    0xc(%rsp),%rcx
    19c9:	48 8d 54 24 08       	lea    0x8(%rsp),%rdx
    19ce:	4c 8d 44 24 10       	lea    0x10(%rsp),%r8
    19d3:	48 8d 35 3f 10 00 00 	lea    0x103f(%rip),%rsi        # 2a19 <array.3413+0x199>
    19da:	48 8d 3d af 2d 20 00 	lea    0x202daf(%rip),%rdi        # 204790 <input_strings+0xf0>
    19e1:	e8 0a f5 ff ff       	callq  ef0 <__isoc99_sscanf@plt>
    19e6:	83 f8 03             	cmp    $0x3,%eax
    19e9:	74 0e                	je     19f9 <phase_defused+0x67>
    19eb:	48 8d 3d 66 0f 00 00 	lea    0xf66(%rip),%rdi        # 2958 <array.3413+0xd8>
    19f2:	e8 39 f4 ff ff       	callq  e30 <puts@plt>
    19f7:	eb b6                	jmp    19af <phase_defused+0x1d>
    19f9:	48 8d 7c 24 10       	lea    0x10(%rsp),%rdi
    19fe:	48 8d 35 1d 10 00 00 	lea    0x101d(%rip),%rsi        # 2a22 <array.3413+0x1a2>
    1a05:	e8 d1 fc ff ff       	callq  16db <strings_not_equal>
    1a0a:	85 c0                	test   %eax,%eax
    1a0c:	75 dd                	jne    19eb <phase_defused+0x59>
    1a0e:	48 8d 3d e3 0e 00 00 	lea    0xee3(%rip),%rdi        # 28f8 <array.3413+0x78>
    1a15:	e8 16 f4 ff ff       	callq  e30 <puts@plt>
    1a1a:	48 8d 3d ff 0e 00 00 	lea    0xeff(%rip),%rdi        # 2920 <array.3413+0xa0>
    1a21:	e8 0a f4 ff ff       	callq  e30 <puts@plt>
    1a26:	b8 00 00 00 00       	mov    $0x0,%eax
    1a2b:	e8 b3 fb ff ff       	callq  15e3 <secret_phase>
    1a30:	eb b9                	jmp    19eb <phase_defused+0x59>
    1a32:	e8 19 f4 ff ff       	callq  e50 <__stack_chk_fail@plt>

0000000000001a37 <sigalrm_handler>:
    1a37:	48 83 ec 08          	sub    $0x8,%rsp
    1a3b:	b9 00 00 00 00       	mov    $0x0,%ecx
    1a40:	48 8d 15 49 10 00 00 	lea    0x1049(%rip),%rdx        # 2a90 <array.3413+0x210>
    1a47:	be 01 00 00 00       	mov    $0x1,%esi
    1a4c:	48 8b 3d 2d 2c 20 00 	mov    0x202c2d(%rip),%rdi        # 204680 <stderr@@GLIBC_2.2.5>
    1a53:	b8 00 00 00 00       	mov    $0x0,%eax
    1a58:	e8 e3 f4 ff ff       	callq  f40 <__fprintf_chk@plt>
    1a5d:	bf 01 00 00 00       	mov    $0x1,%edi
    1a62:	e8 b9 f4 ff ff       	callq  f20 <exit@plt>

0000000000001a67 <rio_readlineb>:
    1a67:	41 56                	push   %r14
    1a69:	41 55                	push   %r13
    1a6b:	41 54                	push   %r12
    1a6d:	55                   	push   %rbp
    1a6e:	53                   	push   %rbx
    1a6f:	48 89 fb             	mov    %rdi,%rbx
    1a72:	49 89 f4             	mov    %rsi,%r12
    1a75:	49 89 d6             	mov    %rdx,%r14
    1a78:	41 bd 01 00 00 00    	mov    $0x1,%r13d
    1a7e:	48 8d 6f 10          	lea    0x10(%rdi),%rbp
    1a82:	48 83 fa 01          	cmp    $0x1,%rdx
    1a86:	77 0c                	ja     1a94 <rio_readlineb+0x2d>
    1a88:	eb 60                	jmp    1aea <rio_readlineb+0x83>
    1a8a:	e8 81 f3 ff ff       	callq  e10 <__errno_location@plt>
    1a8f:	83 38 04             	cmpl   $0x4,(%rax)
    1a92:	75 67                	jne    1afb <rio_readlineb+0x94>
    1a94:	8b 43 04             	mov    0x4(%rbx),%eax
    1a97:	85 c0                	test   %eax,%eax
    1a99:	7f 20                	jg     1abb <rio_readlineb+0x54>
    1a9b:	ba 00 20 00 00       	mov    $0x2000,%edx
    1aa0:	48 89 ee             	mov    %rbp,%rsi
    1aa3:	8b 3b                	mov    (%rbx),%edi
    1aa5:	e8 d6 f3 ff ff       	callq  e80 <read@plt>
    1aaa:	89 43 04             	mov    %eax,0x4(%rbx)
    1aad:	85 c0                	test   %eax,%eax
    1aaf:	78 d9                	js     1a8a <rio_readlineb+0x23>
    1ab1:	85 c0                	test   %eax,%eax
    1ab3:	74 4f                	je     1b04 <rio_readlineb+0x9d>
    1ab5:	48 89 6b 08          	mov    %rbp,0x8(%rbx)
    1ab9:	eb d9                	jmp    1a94 <rio_readlineb+0x2d>
    1abb:	48 8b 53 08          	mov    0x8(%rbx),%rdx
    1abf:	0f b6 0a             	movzbl (%rdx),%ecx
    1ac2:	48 83 c2 01          	add    $0x1,%rdx
    1ac6:	48 89 53 08          	mov    %rdx,0x8(%rbx)
    1aca:	83 e8 01             	sub    $0x1,%eax
    1acd:	89 43 04             	mov    %eax,0x4(%rbx)
    1ad0:	49 83 c4 01          	add    $0x1,%r12
    1ad4:	41 88 4c 24 ff       	mov    %cl,-0x1(%r12)
    1ad9:	80 f9 0a             	cmp    $0xa,%cl
    1adc:	74 0c                	je     1aea <rio_readlineb+0x83>
    1ade:	41 83 c5 01          	add    $0x1,%r13d
    1ae2:	49 63 c5             	movslq %r13d,%rax
    1ae5:	4c 39 f0             	cmp    %r14,%rax
    1ae8:	72 aa                	jb     1a94 <rio_readlineb+0x2d>
    1aea:	41 c6 04 24 00       	movb   $0x0,(%r12)
    1aef:	49 63 c5             	movslq %r13d,%rax
    1af2:	5b                   	pop    %rbx
    1af3:	5d                   	pop    %rbp
    1af4:	41 5c                	pop    %r12
    1af6:	41 5d                	pop    %r13
    1af8:	41 5e                	pop    %r14
    1afa:	c3                   	retq   
    1afb:	48 c7 c0 ff ff ff ff 	mov    $0xffffffffffffffff,%rax
    1b02:	eb 05                	jmp    1b09 <rio_readlineb+0xa2>
    1b04:	b8 00 00 00 00       	mov    $0x0,%eax
    1b09:	85 c0                	test   %eax,%eax
    1b0b:	75 0d                	jne    1b1a <rio_readlineb+0xb3>
    1b0d:	b8 00 00 00 00       	mov    $0x0,%eax
    1b12:	41 83 fd 01          	cmp    $0x1,%r13d
    1b16:	75 d2                	jne    1aea <rio_readlineb+0x83>
    1b18:	eb d8                	jmp    1af2 <rio_readlineb+0x8b>
    1b1a:	48 c7 c0 ff ff ff ff 	mov    $0xffffffffffffffff,%rax
    1b21:	eb cf                	jmp    1af2 <rio_readlineb+0x8b>

0000000000001b23 <submitr>:
    1b23:	41 57                	push   %r15
    1b25:	41 56                	push   %r14
    1b27:	41 55                	push   %r13
    1b29:	41 54                	push   %r12
    1b2b:	55                   	push   %rbp
    1b2c:	53                   	push   %rbx
    1b2d:	48 81 ec 78 a0 00 00 	sub    $0xa078,%rsp
    1b34:	49 89 fd             	mov    %rdi,%r13
    1b37:	89 f5                	mov    %esi,%ebp
    1b39:	48 89 54 24 08       	mov    %rdx,0x8(%rsp)
    1b3e:	48 89 4c 24 10       	mov    %rcx,0x10(%rsp)
    1b43:	4c 89 44 24 20       	mov    %r8,0x20(%rsp)
    1b48:	4c 89 4c 24 18       	mov    %r9,0x18(%rsp)
    1b4d:	48 8b 9c 24 b0 a0 00 	mov    0xa0b0(%rsp),%rbx
    1b54:	00 
    1b55:	4c 8b bc 24 b8 a0 00 	mov    0xa0b8(%rsp),%r15
    1b5c:	00 
    1b5d:	64 48 8b 04 25 28 00 	mov    %fs:0x28,%rax
    1b64:	00 00 
    1b66:	48 89 84 24 68 a0 00 	mov    %rax,0xa068(%rsp)
    1b6d:	00 
    1b6e:	31 c0                	xor    %eax,%eax
    1b70:	c7 44 24 3c 00 00 00 	movl   $0x0,0x3c(%rsp)
    1b77:	00 
    1b78:	ba 00 00 00 00       	mov    $0x0,%edx
    1b7d:	be 01 00 00 00       	mov    $0x1,%esi
    1b82:	bf 02 00 00 00       	mov    $0x2,%edi
    1b87:	e8 f4 f3 ff ff       	callq  f80 <socket@plt>
    1b8c:	85 c0                	test   %eax,%eax
    1b8e:	0f 88 35 01 00 00    	js     1cc9 <submitr+0x1a6>
    1b94:	41 89 c4             	mov    %eax,%r12d
    1b97:	4c 89 ef             	mov    %r13,%rdi
    1b9a:	e8 11 f3 ff ff       	callq  eb0 <gethostbyname@plt>
    1b9f:	48 85 c0             	test   %rax,%rax
    1ba2:	0f 84 71 01 00 00    	je     1d19 <submitr+0x1f6>
    1ba8:	4c 8d 6c 24 40       	lea    0x40(%rsp),%r13
    1bad:	48 c7 44 24 42 00 00 	movq   $0x0,0x42(%rsp)
    1bb4:	00 00 
    1bb6:	c7 44 24 4a 00 00 00 	movl   $0x0,0x4a(%rsp)
    1bbd:	00 
    1bbe:	66 c7 44 24 4e 00 00 	movw   $0x0,0x4e(%rsp)
    1bc5:	66 c7 44 24 40 02 00 	movw   $0x2,0x40(%rsp)
    1bcc:	48 63 50 14          	movslq 0x14(%rax),%rdx
    1bd0:	48 8b 40 18          	mov    0x18(%rax),%rax
    1bd4:	48 8d 7c 24 44       	lea    0x44(%rsp),%rdi
    1bd9:	b9 0c 00 00 00       	mov    $0xc,%ecx
    1bde:	48 8b 30             	mov    (%rax),%rsi
    1be1:	e8 da f2 ff ff       	callq  ec0 <__memmove_chk@plt>
    1be6:	66 c1 cd 08          	ror    $0x8,%bp
    1bea:	66 89 6c 24 42       	mov    %bp,0x42(%rsp)
    1bef:	ba 10 00 00 00       	mov    $0x10,%edx
    1bf4:	4c 89 ee             	mov    %r13,%rsi
    1bf7:	44 89 e7             	mov    %r12d,%edi
    1bfa:	e8 31 f3 ff ff       	callq  f30 <connect@plt>
    1bff:	85 c0                	test   %eax,%eax
    1c01:	0f 88 7d 01 00 00    	js     1d84 <submitr+0x261>
    1c07:	49 c7 c1 ff ff ff ff 	mov    $0xffffffffffffffff,%r9
    1c0e:	b8 00 00 00 00       	mov    $0x0,%eax
    1c13:	4c 89 c9             	mov    %r9,%rcx
    1c16:	48 89 df             	mov    %rbx,%rdi
    1c19:	f2 ae                	repnz scas %es:(%rdi),%al
    1c1b:	48 89 ce             	mov    %rcx,%rsi
    1c1e:	48 f7 d6             	not    %rsi
    1c21:	4c 89 c9             	mov    %r9,%rcx
    1c24:	48 8b 7c 24 08       	mov    0x8(%rsp),%rdi
    1c29:	f2 ae                	repnz scas %es:(%rdi),%al
    1c2b:	49 89 c8             	mov    %rcx,%r8
    1c2e:	4c 89 c9             	mov    %r9,%rcx
    1c31:	48 8b 7c 24 10       	mov    0x10(%rsp),%rdi
    1c36:	f2 ae                	repnz scas %es:(%rdi),%al
    1c38:	48 89 ca             	mov    %rcx,%rdx
    1c3b:	48 f7 d2             	not    %rdx
    1c3e:	4c 89 c9             	mov    %r9,%rcx
    1c41:	48 8b 7c 24 18       	mov    0x18(%rsp),%rdi
    1c46:	f2 ae                	repnz scas %es:(%rdi),%al
    1c48:	4c 29 c2             	sub    %r8,%rdx
    1c4b:	48 29 ca             	sub    %rcx,%rdx
    1c4e:	48 8d 44 76 fd       	lea    -0x3(%rsi,%rsi,2),%rax
    1c53:	48 8d 44 02 7b       	lea    0x7b(%rdx,%rax,1),%rax
    1c58:	48 3d 00 20 00 00    	cmp    $0x2000,%rax
    1c5e:	0f 87 7d 01 00 00    	ja     1de1 <submitr+0x2be>
    1c64:	48 8d 94 24 60 40 00 	lea    0x4060(%rsp),%rdx
    1c6b:	00 
    1c6c:	b9 00 04 00 00       	mov    $0x400,%ecx
    1c71:	b8 00 00 00 00       	mov    $0x0,%eax
    1c76:	48 89 d7             	mov    %rdx,%rdi
    1c79:	f3 48 ab             	rep stos %rax,%es:(%rdi)
    1c7c:	48 c7 c1 ff ff ff ff 	mov    $0xffffffffffffffff,%rcx
    1c83:	48 89 df             	mov    %rbx,%rdi
    1c86:	f2 ae                	repnz scas %es:(%rdi),%al
    1c88:	48 89 ca             	mov    %rcx,%rdx
    1c8b:	48 f7 d2             	not    %rdx
    1c8e:	48 89 d1             	mov    %rdx,%rcx
    1c91:	48 83 e9 01          	sub    $0x1,%rcx
    1c95:	85 c9                	test   %ecx,%ecx
    1c97:	0f 84 3f 06 00 00    	je     22dc <submitr+0x7b9>
    1c9d:	8d 41 ff             	lea    -0x1(%rcx),%eax
    1ca0:	4c 8d 74 03 01       	lea    0x1(%rbx,%rax,1),%r14
    1ca5:	48 8d ac 24 60 40 00 	lea    0x4060(%rsp),%rbp
    1cac:	00 
    1cad:	48 8d 84 24 60 80 00 	lea    0x8060(%rsp),%rax
    1cb4:	00 
    1cb5:	48 89 44 24 28       	mov    %rax,0x28(%rsp)
    1cba:	49 bd d9 ff 00 00 00 	movabs $0x2000000000ffd9,%r13
    1cc1:	00 20 00 
    1cc4:	e9 a6 01 00 00       	jmpq   1e6f <submitr+0x34c>
    1cc9:	48 b8 45 72 72 6f 72 	movabs $0x43203a726f727245,%rax
    1cd0:	3a 20 43 
    1cd3:	48 ba 6c 69 65 6e 74 	movabs $0x6e7520746e65696c,%rdx
    1cda:	20 75 6e 
    1cdd:	49 89 07             	mov    %rax,(%r15)
    1ce0:	49 89 57 08          	mov    %rdx,0x8(%r15)
    1ce4:	48 b8 61 62 6c 65 20 	movabs $0x206f7420656c6261,%rax
    1ceb:	74 6f 20 
    1cee:	48 ba 63 72 65 61 74 	movabs $0x7320657461657263,%rdx
    1cf5:	65 20 73 
    1cf8:	49 89 47 10          	mov    %rax,0x10(%r15)
    1cfc:	49 89 57 18          	mov    %rdx,0x18(%r15)
    1d00:	41 c7 47 20 6f 63 6b 	movl   $0x656b636f,0x20(%r15)
    1d07:	65 
    1d08:	66 41 c7 47 24 74 00 	movw   $0x74,0x24(%r15)
    1d0f:	b8 ff ff ff ff       	mov    $0xffffffff,%eax
    1d14:	e9 9a 04 00 00       	jmpq   21b3 <submitr+0x690>
    1d19:	48 b8 45 72 72 6f 72 	movabs $0x44203a726f727245,%rax
    1d20:	3a 20 44 
    1d23:	48 ba 4e 53 20 69 73 	movabs $0x6e7520736920534e,%rdx
    1d2a:	20 75 6e 
    1d2d:	49 89 07             	mov    %rax,(%r15)
    1d30:	49 89 57 08          	mov    %rdx,0x8(%r15)
    1d34:	48 b8 61 62 6c 65 20 	movabs $0x206f7420656c6261,%rax
    1d3b:	74 6f 20 
    1d3e:	48 ba 72 65 73 6f 6c 	movabs $0x2065766c6f736572,%rdx
    1d45:	76 65 20 
    1d48:	49 89 47 10          	mov    %rax,0x10(%r15)
    1d4c:	49 89 57 18          	mov    %rdx,0x18(%r15)
    1d50:	48 b8 73 65 72 76 65 	movabs $0x6120726576726573,%rax
    1d57:	72 20 61 
    1d5a:	49 89 47 20          	mov    %rax,0x20(%r15)
    1d5e:	41 c7 47 28 64 64 72 	movl   $0x65726464,0x28(%r15)
    1d65:	65 
    1d66:	66 41 c7 47 2c 73 73 	movw   $0x7373,0x2c(%r15)
    1d6d:	41 c6 47 2e 00       	movb   $0x0,0x2e(%r15)
    1d72:	44 89 e7             	mov    %r12d,%edi
    1d75:	e8 f6 f0 ff ff       	callq  e70 <close@plt>
    1d7a:	b8 ff ff ff ff       	mov    $0xffffffff,%eax
    1d7f:	e9 2f 04 00 00       	jmpq   21b3 <submitr+0x690>
    1d84:	48 b8 45 72 72 6f 72 	movabs $0x55203a726f727245,%rax
    1d8b:	3a 20 55 
    1d8e:	48 ba 6e 61 62 6c 65 	movabs $0x6f7420656c62616e,%rdx
    1d95:	20 74 6f 
    1d98:	49 89 07             	mov    %rax,(%r15)
    1d9b:	49 89 57 08          	mov    %rdx,0x8(%r15)
    1d9f:	48 b8 20 63 6f 6e 6e 	movabs $0x7463656e6e6f6320,%rax
    1da6:	65 63 74 
    1da9:	48 ba 20 74 6f 20 74 	movabs $0x20656874206f7420,%rdx
    1db0:	68 65 20 
    1db3:	49 89 47 10          	mov    %rax,0x10(%r15)
    1db7:	49 89 57 18          	mov    %rdx,0x18(%r15)
    1dbb:	41 c7 47 20 73 65 72 	movl   $0x76726573,0x20(%r15)
    1dc2:	76 
    1dc3:	66 41 c7 47 24 65 72 	movw   $0x7265,0x24(%r15)
    1dca:	41 c6 47 26 00       	movb   $0x0,0x26(%r15)
    1dcf:	44 89 e7             	mov    %r12d,%edi
    1dd2:	e8 99 f0 ff ff       	callq  e70 <close@plt>
    1dd7:	b8 ff ff ff ff       	mov    $0xffffffff,%eax
    1ddc:	e9 d2 03 00 00       	jmpq   21b3 <submitr+0x690>
    1de1:	48 b8 45 72 72 6f 72 	movabs $0x52203a726f727245,%rax
    1de8:	3a 20 52 
    1deb:	48 ba 65 73 75 6c 74 	movabs $0x747320746c757365,%rdx
    1df2:	20 73 74 
    1df5:	49 89 07             	mov    %rax,(%r15)
    1df8:	49 89 57 08          	mov    %rdx,0x8(%r15)
    1dfc:	48 b8 72 69 6e 67 20 	movabs $0x6f6f7420676e6972,%rax
    1e03:	74 6f 6f 
    1e06:	48 ba 20 6c 61 72 67 	movabs $0x202e656772616c20,%rdx
    1e0d:	65 2e 20 
    1e10:	49 89 47 10          	mov    %rax,0x10(%r15)
    1e14:	49 89 57 18          	mov    %rdx,0x18(%r15)
    1e18:	48 b8 49 6e 63 72 65 	movabs $0x6573616572636e49,%rax
    1e1f:	61 73 65 
    1e22:	48 ba 20 53 55 42 4d 	movabs $0x5254494d42555320,%rdx
    1e29:	49 54 52 
    1e2c:	49 89 47 20          	mov    %rax,0x20(%r15)
    1e30:	49 89 57 28          	mov    %rdx,0x28(%r15)
    1e34:	48 b8 5f 4d 41 58 42 	movabs $0x46554258414d5f,%rax
    1e3b:	55 46 00 
    1e3e:	49 89 47 30          	mov    %rax,0x30(%r15)
    1e42:	44 89 e7             	mov    %r12d,%edi
    1e45:	e8 26 f0 ff ff       	callq  e70 <close@plt>
    1e4a:	b8 ff ff ff ff       	mov    $0xffffffff,%eax
    1e4f:	e9 5f 03 00 00       	jmpq   21b3 <submitr+0x690>
    1e54:	49 0f a3 c5          	bt     %rax,%r13
    1e58:	73 21                	jae    1e7b <submitr+0x358>
    1e5a:	44 88 45 00          	mov    %r8b,0x0(%rbp)
    1e5e:	48 8d 6d 01          	lea    0x1(%rbp),%rbp
    1e62:	48 83 c3 01          	add    $0x1,%rbx
    1e66:	4c 39 f3             	cmp    %r14,%rbx
    1e69:	0f 84 6d 04 00 00    	je     22dc <submitr+0x7b9>
    1e6f:	44 0f b6 03          	movzbl (%rbx),%r8d
    1e73:	41 8d 40 d6          	lea    -0x2a(%r8),%eax
    1e77:	3c 35                	cmp    $0x35,%al
    1e79:	76 d9                	jbe    1e54 <submitr+0x331>
    1e7b:	44 89 c0             	mov    %r8d,%eax
    1e7e:	83 e0 df             	and    $0xffffffdf,%eax
    1e81:	83 e8 41             	sub    $0x41,%eax
    1e84:	3c 19                	cmp    $0x19,%al
    1e86:	76 d2                	jbe    1e5a <submitr+0x337>
    1e88:	41 80 f8 20          	cmp    $0x20,%r8b
    1e8c:	74 60                	je     1eee <submitr+0x3cb>
    1e8e:	41 8d 40 e0          	lea    -0x20(%r8),%eax
    1e92:	3c 5f                	cmp    $0x5f,%al
    1e94:	76 0a                	jbe    1ea0 <submitr+0x37d>
    1e96:	41 80 f8 09          	cmp    $0x9,%r8b
    1e9a:	0f 85 af 03 00 00    	jne    224f <submitr+0x72c>
    1ea0:	45 0f b6 c0          	movzbl %r8b,%r8d
    1ea4:	48 8d 0d bd 0c 00 00 	lea    0xcbd(%rip),%rcx        # 2b68 <array.3413+0x2e8>
    1eab:	ba 08 00 00 00       	mov    $0x8,%edx
    1eb0:	be 01 00 00 00       	mov    $0x1,%esi
    1eb5:	48 8b 7c 24 28       	mov    0x28(%rsp),%rdi
    1eba:	b8 00 00 00 00       	mov    $0x0,%eax
    1ebf:	e8 ac f0 ff ff       	callq  f70 <__sprintf_chk@plt>
    1ec4:	0f b6 84 24 60 80 00 	movzbl 0x8060(%rsp),%eax
    1ecb:	00 
    1ecc:	88 45 00             	mov    %al,0x0(%rbp)
    1ecf:	0f b6 84 24 61 80 00 	movzbl 0x8061(%rsp),%eax
    1ed6:	00 
    1ed7:	88 45 01             	mov    %al,0x1(%rbp)
    1eda:	0f b6 84 24 62 80 00 	movzbl 0x8062(%rsp),%eax
    1ee1:	00 
    1ee2:	88 45 02             	mov    %al,0x2(%rbp)
    1ee5:	48 8d 6d 03          	lea    0x3(%rbp),%rbp
    1ee9:	e9 74 ff ff ff       	jmpq   1e62 <submitr+0x33f>
    1eee:	c6 45 00 2b          	movb   $0x2b,0x0(%rbp)
    1ef2:	48 8d 6d 01          	lea    0x1(%rbp),%rbp
    1ef6:	e9 67 ff ff ff       	jmpq   1e62 <submitr+0x33f>
    1efb:	49 01 c5             	add    %rax,%r13
    1efe:	48 29 c5             	sub    %rax,%rbp
    1f01:	74 26                	je     1f29 <submitr+0x406>
    1f03:	48 89 ea             	mov    %rbp,%rdx
    1f06:	4c 89 ee             	mov    %r13,%rsi
    1f09:	44 89 e7             	mov    %r12d,%edi
    1f0c:	e8 2f ef ff ff       	callq  e40 <write@plt>
    1f11:	48 85 c0             	test   %rax,%rax
    1f14:	7f e5                	jg     1efb <submitr+0x3d8>
    1f16:	e8 f5 ee ff ff       	callq  e10 <__errno_location@plt>
    1f1b:	83 38 04             	cmpl   $0x4,(%rax)
    1f1e:	0f 85 31 01 00 00    	jne    2055 <submitr+0x532>
    1f24:	4c 89 f0             	mov    %r14,%rax
    1f27:	eb d2                	jmp    1efb <submitr+0x3d8>
    1f29:	48 85 db             	test   %rbx,%rbx
    1f2c:	0f 88 23 01 00 00    	js     2055 <submitr+0x532>
    1f32:	44 89 64 24 50       	mov    %r12d,0x50(%rsp)
    1f37:	c7 44 24 54 00 00 00 	movl   $0x0,0x54(%rsp)
    1f3e:	00 
    1f3f:	48 8d 7c 24 50       	lea    0x50(%rsp),%rdi
    1f44:	48 8d 47 10          	lea    0x10(%rdi),%rax
    1f48:	48 89 44 24 58       	mov    %rax,0x58(%rsp)
    1f4d:	48 8d b4 24 60 20 00 	lea    0x2060(%rsp),%rsi
    1f54:	00 
    1f55:	ba 00 20 00 00       	mov    $0x2000,%edx
    1f5a:	e8 08 fb ff ff       	callq  1a67 <rio_readlineb>
    1f5f:	48 85 c0             	test   %rax,%rax
    1f62:	0f 8e 4c 01 00 00    	jle    20b4 <submitr+0x591>
    1f68:	48 8d 4c 24 3c       	lea    0x3c(%rsp),%rcx
    1f6d:	48 8d 94 24 60 60 00 	lea    0x6060(%rsp),%rdx
    1f74:	00 
    1f75:	48 8d bc 24 60 20 00 	lea    0x2060(%rsp),%rdi
    1f7c:	00 
    1f7d:	4c 8d 84 24 60 80 00 	lea    0x8060(%rsp),%r8
    1f84:	00 
    1f85:	48 8d 35 e3 0b 00 00 	lea    0xbe3(%rip),%rsi        # 2b6f <array.3413+0x2ef>
    1f8c:	b8 00 00 00 00       	mov    $0x0,%eax
    1f91:	e8 5a ef ff ff       	callq  ef0 <__isoc99_sscanf@plt>
    1f96:	44 8b 44 24 3c       	mov    0x3c(%rsp),%r8d
    1f9b:	41 81 f8 c8 00 00 00 	cmp    $0xc8,%r8d
    1fa2:	0f 85 80 01 00 00    	jne    2128 <submitr+0x605>
    1fa8:	48 8d 9c 24 60 20 00 	lea    0x2060(%rsp),%rbx
    1faf:	00 
    1fb0:	48 8d 2d c9 0b 00 00 	lea    0xbc9(%rip),%rbp        # 2b80 <array.3413+0x300>
    1fb7:	4c 8d 6c 24 50       	lea    0x50(%rsp),%r13
    1fbc:	b9 03 00 00 00       	mov    $0x3,%ecx
    1fc1:	48 89 de             	mov    %rbx,%rsi
    1fc4:	48 89 ef             	mov    %rbp,%rdi
    1fc7:	f3 a6                	repz cmpsb %es:(%rdi),%ds:(%rsi)
    1fc9:	0f 97 c0             	seta   %al
    1fcc:	1c 00                	sbb    $0x0,%al
    1fce:	84 c0                	test   %al,%al
    1fd0:	0f 84 89 01 00 00    	je     215f <submitr+0x63c>
    1fd6:	ba 00 20 00 00       	mov    $0x2000,%edx
    1fdb:	48 89 de             	mov    %rbx,%rsi
    1fde:	4c 89 ef             	mov    %r13,%rdi
    1fe1:	e8 81 fa ff ff       	callq  1a67 <rio_readlineb>
    1fe6:	48 85 c0             	test   %rax,%rax
    1fe9:	7f d1                	jg     1fbc <submitr+0x499>
    1feb:	48 b8 45 72 72 6f 72 	movabs $0x43203a726f727245,%rax
    1ff2:	3a 20 43 
    1ff5:	48 ba 6c 69 65 6e 74 	movabs $0x6e7520746e65696c,%rdx
    1ffc:	20 75 6e 
    1fff:	49 89 07             	mov    %rax,(%r15)
    2002:	49 89 57 08          	mov    %rdx,0x8(%r15)
    2006:	48 b8 61 62 6c 65 20 	movabs $0x206f7420656c6261,%rax
    200d:	74 6f 20 
    2010:	48 ba 72 65 61 64 20 	movabs $0x6165682064616572,%rdx
    2017:	68 65 61 
    201a:	49 89 47 10          	mov    %rax,0x10(%r15)
    201e:	49 89 57 18          	mov    %rdx,0x18(%r15)
    2022:	48 b8 64 65 72 73 20 	movabs $0x6f72662073726564,%rax
    2029:	66 72 6f 
    202c:	48 ba 6d 20 73 65 72 	movabs $0x726576726573206d,%rdx
    2033:	76 65 72 
    2036:	49 89 47 20          	mov    %rax,0x20(%r15)
    203a:	49 89 57 28          	mov    %rdx,0x28(%r15)
    203e:	41 c6 47 30 00       	movb   $0x0,0x30(%r15)
    2043:	44 89 e7             	mov    %r12d,%edi
    2046:	e8 25 ee ff ff       	callq  e70 <close@plt>
    204b:	b8 ff ff ff ff       	mov    $0xffffffff,%eax
    2050:	e9 5e 01 00 00       	jmpq   21b3 <submitr+0x690>
    2055:	48 b8 45 72 72 6f 72 	movabs $0x43203a726f727245,%rax
    205c:	3a 20 43 
    205f:	48 ba 6c 69 65 6e 74 	movabs $0x6e7520746e65696c,%rdx
    2066:	20 75 6e 
    2069:	49 89 07             	mov    %rax,(%r15)
    206c:	49 89 57 08          	mov    %rdx,0x8(%r15)
    2070:	48 b8 61 62 6c 65 20 	movabs $0x206f7420656c6261,%rax
    2077:	74 6f 20 
    207a:	48 ba 77 72 69 74 65 	movabs $0x6f74206574697277,%rdx
    2081:	20 74 6f 
    2084:	49 89 47 10          	mov    %rax,0x10(%r15)
    2088:	49 89 57 18          	mov    %rdx,0x18(%r15)
    208c:	48 b8 20 74 68 65 20 	movabs $0x7265732065687420,%rax
    2093:	73 65 72 
    2096:	49 89 47 20          	mov    %rax,0x20(%r15)
    209a:	41 c7 47 28 76 65 72 	movl   $0x726576,0x28(%r15)
    20a1:	00 
    20a2:	44 89 e7             	mov    %r12d,%edi
    20a5:	e8 c6 ed ff ff       	callq  e70 <close@plt>
    20aa:	b8 ff ff ff ff       	mov    $0xffffffff,%eax
    20af:	e9 ff 00 00 00       	jmpq   21b3 <submitr+0x690>
    20b4:	48 b8 45 72 72 6f 72 	movabs $0x43203a726f727245,%rax
    20bb:	3a 20 43 
    20be:	48 ba 6c 69 65 6e 74 	movabs $0x6e7520746e65696c,%rdx
    20c5:	20 75 6e 
    20c8:	49 89 07             	mov    %rax,(%r15)
    20cb:	49 89 57 08          	mov    %rdx,0x8(%r15)
    20cf:	48 b8 61 62 6c 65 20 	movabs $0x206f7420656c6261,%rax
    20d6:	74 6f 20 
    20d9:	48 ba 72 65 61 64 20 	movabs $0x7269662064616572,%rdx
    20e0:	66 69 72 
    20e3:	49 89 47 10          	mov    %rax,0x10(%r15)
    20e7:	49 89 57 18          	mov    %rdx,0x18(%r15)
    20eb:	48 b8 73 74 20 68 65 	movabs $0x6564616568207473,%rax
    20f2:	61 64 65 
    20f5:	48 ba 72 20 66 72 6f 	movabs $0x73206d6f72662072,%rdx
    20fc:	6d 20 73 
    20ff:	49 89 47 20          	mov    %rax,0x20(%r15)
    2103:	49 89 57 28          	mov    %rdx,0x28(%r15)
    2107:	41 c7 47 30 65 72 76 	movl   $0x65767265,0x30(%r15)
    210e:	65 
    210f:	66 41 c7 47 34 72 00 	movw   $0x72,0x34(%r15)
    2116:	44 89 e7             	mov    %r12d,%edi
    2119:	e8 52 ed ff ff       	callq  e70 <close@plt>
    211e:	b8 ff ff ff ff       	mov    $0xffffffff,%eax
    2123:	e9 8b 00 00 00       	jmpq   21b3 <submitr+0x690>
    2128:	4c 8d 8c 24 60 80 00 	lea    0x8060(%rsp),%r9
    212f:	00 
    2130:	48 8d 0d 81 09 00 00 	lea    0x981(%rip),%rcx        # 2ab8 <array.3413+0x238>
    2137:	48 c7 c2 ff ff ff ff 	mov    $0xffffffffffffffff,%rdx
    213e:	be 01 00 00 00       	mov    $0x1,%esi
    2143:	4c 89 ff             	mov    %r15,%rdi
    2146:	b8 00 00 00 00       	mov    $0x0,%eax
    214b:	e8 20 ee ff ff       	callq  f70 <__sprintf_chk@plt>
    2150:	44 89 e7             	mov    %r12d,%edi
    2153:	e8 18 ed ff ff       	callq  e70 <close@plt>
    2158:	b8 ff ff ff ff       	mov    $0xffffffff,%eax
    215d:	eb 54                	jmp    21b3 <submitr+0x690>
    215f:	48 8d b4 24 60 20 00 	lea    0x2060(%rsp),%rsi
    2166:	00 
    2167:	48 8d 7c 24 50       	lea    0x50(%rsp),%rdi
    216c:	ba 00 20 00 00       	mov    $0x2000,%edx
    2171:	e8 f1 f8 ff ff       	callq  1a67 <rio_readlineb>
    2176:	48 85 c0             	test   %rax,%rax
    2179:	7e 61                	jle    21dc <submitr+0x6b9>
    217b:	48 8d b4 24 60 20 00 	lea    0x2060(%rsp),%rsi
    2182:	00 
    2183:	4c 89 ff             	mov    %r15,%rdi
    2186:	e8 95 ec ff ff       	callq  e20 <strcpy@plt>
    218b:	44 89 e7             	mov    %r12d,%edi
    218e:	e8 dd ec ff ff       	callq  e70 <close@plt>
    2193:	b9 03 00 00 00       	mov    $0x3,%ecx
    2198:	48 8d 3d e4 09 00 00 	lea    0x9e4(%rip),%rdi        # 2b83 <array.3413+0x303>
    219f:	4c 89 fe             	mov    %r15,%rsi
    21a2:	f3 a6                	repz cmpsb %es:(%rdi),%ds:(%rsi)
    21a4:	0f 97 c0             	seta   %al
    21a7:	1c 00                	sbb    $0x0,%al
    21a9:	84 c0                	test   %al,%al
    21ab:	0f 95 c0             	setne  %al
    21ae:	0f b6 c0             	movzbl %al,%eax
    21b1:	f7 d8                	neg    %eax
    21b3:	48 8b 94 24 68 a0 00 	mov    0xa068(%rsp),%rdx
    21ba:	00 
    21bb:	64 48 33 14 25 28 00 	xor    %fs:0x28,%rdx
    21c2:	00 00 
    21c4:	0f 85 95 01 00 00    	jne    235f <submitr+0x83c>
    21ca:	48 81 c4 78 a0 00 00 	add    $0xa078,%rsp
    21d1:	5b                   	pop    %rbx
    21d2:	5d                   	pop    %rbp
    21d3:	41 5c                	pop    %r12
    21d5:	41 5d                	pop    %r13
    21d7:	41 5e                	pop    %r14
    21d9:	41 5f                	pop    %r15
    21db:	c3                   	retq   
    21dc:	48 b8 45 72 72 6f 72 	movabs $0x43203a726f727245,%rax
    21e3:	3a 20 43 
    21e6:	48 ba 6c 69 65 6e 74 	movabs $0x6e7520746e65696c,%rdx
    21ed:	20 75 6e 
    21f0:	49 89 07             	mov    %rax,(%r15)
    21f3:	49 89 57 08          	mov    %rdx,0x8(%r15)
    21f7:	48 b8 61 62 6c 65 20 	movabs $0x206f7420656c6261,%rax
    21fe:	74 6f 20 
    2201:	48 ba 72 65 61 64 20 	movabs $0x6174732064616572,%rdx
    2208:	73 74 61 
    220b:	49 89 47 10          	mov    %rax,0x10(%r15)
    220f:	49 89 57 18          	mov    %rdx,0x18(%r15)
    2213:	48 b8 74 75 73 20 6d 	movabs $0x7373656d20737574,%rax
    221a:	65 73 73 
    221d:	48 ba 61 67 65 20 66 	movabs $0x6d6f726620656761,%rdx
    2224:	72 6f 6d 
    2227:	49 89 47 20          	mov    %rax,0x20(%r15)
    222b:	49 89 57 28          	mov    %rdx,0x28(%r15)
    222f:	48 b8 20 73 65 72 76 	movabs $0x72657672657320,%rax
    2236:	65 72 00 
    2239:	49 89 47 30          	mov    %rax,0x30(%r15)
    223d:	44 89 e7             	mov    %r12d,%edi
    2240:	e8 2b ec ff ff       	callq  e70 <close@plt>
    2245:	b8 ff ff ff ff       	mov    $0xffffffff,%eax
    224a:	e9 64 ff ff ff       	jmpq   21b3 <submitr+0x690>
    224f:	48 b8 45 72 72 6f 72 	movabs $0x52203a726f727245,%rax
    2256:	3a 20 52 
    2259:	48 ba 65 73 75 6c 74 	movabs $0x747320746c757365,%rdx
    2260:	20 73 74 
    2263:	49 89 07             	mov    %rax,(%r15)
    2266:	49 89 57 08          	mov    %rdx,0x8(%r15)
    226a:	48 b8 72 69 6e 67 20 	movabs $0x6e6f6320676e6972,%rax
    2271:	63 6f 6e 
    2274:	48 ba 74 61 69 6e 73 	movabs $0x6e6120736e696174,%rdx
    227b:	20 61 6e 
    227e:	49 89 47 10          	mov    %rax,0x10(%r15)
    2282:	49 89 57 18          	mov    %rdx,0x18(%r15)
    2286:	48 b8 20 69 6c 6c 65 	movabs $0x6c6167656c6c6920,%rax
    228d:	67 61 6c 
    2290:	48 ba 20 6f 72 20 75 	movabs $0x72706e7520726f20,%rdx
    2297:	6e 70 72 
    229a:	49 89 47 20          	mov    %rax,0x20(%r15)
    229e:	49 89 57 28          	mov    %rdx,0x28(%r15)
    22a2:	48 b8 69 6e 74 61 62 	movabs $0x20656c6261746e69,%rax
    22a9:	6c 65 20 
    22ac:	48 ba 63 68 61 72 61 	movabs $0x6574636172616863,%rdx
    22b3:	63 74 65 
    22b6:	49 89 47 30          	mov    %rax,0x30(%r15)
    22ba:	49 89 57 38          	mov    %rdx,0x38(%r15)
    22be:	66 41 c7 47 40 72 2e 	movw   $0x2e72,0x40(%r15)
    22c5:	41 c6 47 42 00       	movb   $0x0,0x42(%r15)
    22ca:	44 89 e7             	mov    %r12d,%edi
    22cd:	e8 9e eb ff ff       	callq  e70 <close@plt>
    22d2:	b8 ff ff ff ff       	mov    $0xffffffff,%eax
    22d7:	e9 d7 fe ff ff       	jmpq   21b3 <submitr+0x690>
    22dc:	48 8d 9c 24 60 20 00 	lea    0x2060(%rsp),%rbx
    22e3:	00 
    22e4:	48 83 ec 08          	sub    $0x8,%rsp
    22e8:	48 8d 84 24 68 40 00 	lea    0x4068(%rsp),%rax
    22ef:	00 
    22f0:	50                   	push   %rax
    22f1:	ff 74 24 28          	pushq  0x28(%rsp)
    22f5:	ff 74 24 38          	pushq  0x38(%rsp)
    22f9:	4c 8b 4c 24 30       	mov    0x30(%rsp),%r9
    22fe:	4c 8b 44 24 28       	mov    0x28(%rsp),%r8
    2303:	48 8d 0d de 07 00 00 	lea    0x7de(%rip),%rcx        # 2ae8 <array.3413+0x268>
    230a:	ba 00 20 00 00       	mov    $0x2000,%edx
    230f:	be 01 00 00 00       	mov    $0x1,%esi
    2314:	48 89 df             	mov    %rbx,%rdi
    2317:	b8 00 00 00 00       	mov    $0x0,%eax
    231c:	e8 4f ec ff ff       	callq  f70 <__sprintf_chk@plt>
    2321:	48 c7 c1 ff ff ff ff 	mov    $0xffffffffffffffff,%rcx
    2328:	b8 00 00 00 00       	mov    $0x0,%eax
    232d:	48 89 df             	mov    %rbx,%rdi
    2330:	f2 ae                	repnz scas %es:(%rdi),%al
    2332:	48 f7 d1             	not    %rcx
    2335:	48 89 cb             	mov    %rcx,%rbx
    2338:	48 83 eb 01          	sub    $0x1,%rbx
    233c:	48 83 c4 20          	add    $0x20,%rsp
    2340:	48 89 dd             	mov    %rbx,%rbp
    2343:	4c 8d ac 24 60 20 00 	lea    0x2060(%rsp),%r13
    234a:	00 
    234b:	41 be 00 00 00 00    	mov    $0x0,%r14d
    2351:	48 85 db             	test   %rbx,%rbx
    2354:	0f 85 a9 fb ff ff    	jne    1f03 <submitr+0x3e0>
    235a:	e9 d3 fb ff ff       	jmpq   1f32 <submitr+0x40f>
    235f:	e8 ec ea ff ff       	callq  e50 <__stack_chk_fail@plt>

0000000000002364 <init_timeout>:
    2364:	85 ff                	test   %edi,%edi
    2366:	74 25                	je     238d <init_timeout+0x29>
    2368:	53                   	push   %rbx
    2369:	89 fb                	mov    %edi,%ebx
    236b:	48 8d 35 c5 f6 ff ff 	lea    -0x93b(%rip),%rsi        # 1a37 <sigalrm_handler>
    2372:	bf 0e 00 00 00       	mov    $0xe,%edi
    2377:	e8 24 eb ff ff       	callq  ea0 <signal@plt>
    237c:	85 db                	test   %ebx,%ebx
    237e:	bf 00 00 00 00       	mov    $0x0,%edi
    2383:	0f 49 fb             	cmovns %ebx,%edi
    2386:	e8 d5 ea ff ff       	callq  e60 <alarm@plt>
    238b:	5b                   	pop    %rbx
    238c:	c3                   	retq   
    238d:	f3 c3                	repz retq 

000000000000238f <init_driver>:
    238f:	41 54                	push   %r12
    2391:	55                   	push   %rbp
    2392:	53                   	push   %rbx
    2393:	48 83 ec 20          	sub    $0x20,%rsp
    2397:	49 89 fc             	mov    %rdi,%r12
    239a:	64 48 8b 04 25 28 00 	mov    %fs:0x28,%rax
    23a1:	00 00 
    23a3:	48 89 44 24 18       	mov    %rax,0x18(%rsp)
    23a8:	31 c0                	xor    %eax,%eax
    23aa:	be 01 00 00 00       	mov    $0x1,%esi
    23af:	bf 0d 00 00 00       	mov    $0xd,%edi
    23b4:	e8 e7 ea ff ff       	callq  ea0 <signal@plt>
    23b9:	be 01 00 00 00       	mov    $0x1,%esi
    23be:	bf 1d 00 00 00       	mov    $0x1d,%edi
    23c3:	e8 d8 ea ff ff       	callq  ea0 <signal@plt>
    23c8:	be 01 00 00 00       	mov    $0x1,%esi
    23cd:	bf 1d 00 00 00       	mov    $0x1d,%edi
    23d2:	e8 c9 ea ff ff       	callq  ea0 <signal@plt>
    23d7:	ba 00 00 00 00       	mov    $0x0,%edx
    23dc:	be 01 00 00 00       	mov    $0x1,%esi
    23e1:	bf 02 00 00 00       	mov    $0x2,%edi
    23e6:	e8 95 eb ff ff       	callq  f80 <socket@plt>
    23eb:	85 c0                	test   %eax,%eax
    23ed:	0f 88 a3 00 00 00    	js     2496 <init_driver+0x107>
    23f3:	89 c3                	mov    %eax,%ebx
    23f5:	48 8d 3d 8a 07 00 00 	lea    0x78a(%rip),%rdi        # 2b86 <array.3413+0x306>
    23fc:	e8 af ea ff ff       	callq  eb0 <gethostbyname@plt>
    2401:	48 85 c0             	test   %rax,%rax
    2404:	0f 84 df 00 00 00    	je     24e9 <init_driver+0x15a>
    240a:	48 89 e5             	mov    %rsp,%rbp
    240d:	48 c7 44 24 02 00 00 	movq   $0x0,0x2(%rsp)
    2414:	00 00 
    2416:	c7 45 0a 00 00 00 00 	movl   $0x0,0xa(%rbp)
    241d:	66 c7 45 0e 00 00    	movw   $0x0,0xe(%rbp)
    2423:	66 c7 04 24 02 00    	movw   $0x2,(%rsp)
    2429:	48 63 50 14          	movslq 0x14(%rax),%rdx
    242d:	48 8b 40 18          	mov    0x18(%rax),%rax
    2431:	48 8d 7d 04          	lea    0x4(%rbp),%rdi
    2435:	b9 0c 00 00 00       	mov    $0xc,%ecx
    243a:	48 8b 30             	mov    (%rax),%rsi
    243d:	e8 7e ea ff ff       	callq  ec0 <__memmove_chk@plt>
    2442:	66 c7 44 24 02 3b 6e 	movw   $0x6e3b,0x2(%rsp)
    2449:	ba 10 00 00 00       	mov    $0x10,%edx
    244e:	48 89 ee             	mov    %rbp,%rsi
    2451:	89 df                	mov    %ebx,%edi
    2453:	e8 d8 ea ff ff       	callq  f30 <connect@plt>
    2458:	85 c0                	test   %eax,%eax
    245a:	0f 88 fb 00 00 00    	js     255b <init_driver+0x1cc>
    2460:	89 df                	mov    %ebx,%edi
    2462:	e8 09 ea ff ff       	callq  e70 <close@plt>
    2467:	66 41 c7 04 24 4f 4b 	movw   $0x4b4f,(%r12)
    246e:	41 c6 44 24 02 00    	movb   $0x0,0x2(%r12)
    2474:	b8 00 00 00 00       	mov    $0x0,%eax
    2479:	48 8b 4c 24 18       	mov    0x18(%rsp),%rcx
    247e:	64 48 33 0c 25 28 00 	xor    %fs:0x28,%rcx
    2485:	00 00 
    2487:	0f 85 06 01 00 00    	jne    2593 <init_driver+0x204>
    248d:	48 83 c4 20          	add    $0x20,%rsp
    2491:	5b                   	pop    %rbx
    2492:	5d                   	pop    %rbp
    2493:	41 5c                	pop    %r12
    2495:	c3                   	retq   
    2496:	48 b8 45 72 72 6f 72 	movabs $0x43203a726f727245,%rax
    249d:	3a 20 43 
    24a0:	48 ba 6c 69 65 6e 74 	movabs $0x6e7520746e65696c,%rdx
    24a7:	20 75 6e 
    24aa:	49 89 04 24          	mov    %rax,(%r12)
    24ae:	49 89 54 24 08       	mov    %rdx,0x8(%r12)
    24b3:	48 b8 61 62 6c 65 20 	movabs $0x206f7420656c6261,%rax
    24ba:	74 6f 20 
    24bd:	48 ba 63 72 65 61 74 	movabs $0x7320657461657263,%rdx
    24c4:	65 20 73 
    24c7:	49 89 44 24 10       	mov    %rax,0x10(%r12)
    24cc:	49 89 54 24 18       	mov    %rdx,0x18(%r12)
    24d1:	41 c7 44 24 20 6f 63 	movl   $0x656b636f,0x20(%r12)
    24d8:	6b 65 
    24da:	66 41 c7 44 24 24 74 	movw   $0x74,0x24(%r12)
    24e1:	00 
    24e2:	b8 ff ff ff ff       	mov    $0xffffffff,%eax
    24e7:	eb 90                	jmp    2479 <init_driver+0xea>
    24e9:	48 b8 45 72 72 6f 72 	movabs $0x44203a726f727245,%rax
    24f0:	3a 20 44 
    24f3:	48 ba 4e 53 20 69 73 	movabs $0x6e7520736920534e,%rdx
    24fa:	20 75 6e 
    24fd:	49 89 04 24          	mov    %rax,(%r12)
    2501:	49 89 54 24 08       	mov    %rdx,0x8(%r12)
    2506:	48 b8 61 62 6c 65 20 	movabs $0x206f7420656c6261,%rax
    250d:	74 6f 20 
    2510:	48 ba 72 65 73 6f 6c 	movabs $0x2065766c6f736572,%rdx
    2517:	76 65 20 
    251a:	49 89 44 24 10       	mov    %rax,0x10(%r12)
    251f:	49 89 54 24 18       	mov    %rdx,0x18(%r12)
    2524:	48 b8 73 65 72 76 65 	movabs $0x6120726576726573,%rax
    252b:	72 20 61 
    252e:	49 89 44 24 20       	mov    %rax,0x20(%r12)
    2533:	41 c7 44 24 28 64 64 	movl   $0x65726464,0x28(%r12)
    253a:	72 65 
    253c:	66 41 c7 44 24 2c 73 	movw   $0x7373,0x2c(%r12)
    2543:	73 
    2544:	41 c6 44 24 2e 00    	movb   $0x0,0x2e(%r12)
    254a:	89 df                	mov    %ebx,%edi
    254c:	e8 1f e9 ff ff       	callq  e70 <close@plt>
    2551:	b8 ff ff ff ff       	mov    $0xffffffff,%eax
    2556:	e9 1e ff ff ff       	jmpq   2479 <init_driver+0xea>
    255b:	4c 8d 05 24 06 00 00 	lea    0x624(%rip),%r8        # 2b86 <array.3413+0x306>
    2562:	48 8d 0d d7 05 00 00 	lea    0x5d7(%rip),%rcx        # 2b40 <array.3413+0x2c0>
    2569:	48 c7 c2 ff ff ff ff 	mov    $0xffffffffffffffff,%rdx
    2570:	be 01 00 00 00       	mov    $0x1,%esi
    2575:	4c 89 e7             	mov    %r12,%rdi
    2578:	b8 00 00 00 00       	mov    $0x0,%eax
    257d:	e8 ee e9 ff ff       	callq  f70 <__sprintf_chk@plt>
    2582:	89 df                	mov    %ebx,%edi
    2584:	e8 e7 e8 ff ff       	callq  e70 <close@plt>
    2589:	b8 ff ff ff ff       	mov    $0xffffffff,%eax
    258e:	e9 e6 fe ff ff       	jmpq   2479 <init_driver+0xea>
    2593:	e8 b8 e8 ff ff       	callq  e50 <__stack_chk_fail@plt>

0000000000002598 <driver_post>:
    2598:	53                   	push   %rbx
    2599:	4c 89 c3             	mov    %r8,%rbx
    259c:	85 c9                	test   %ecx,%ecx
    259e:	75 17                	jne    25b7 <driver_post+0x1f>
    25a0:	48 85 ff             	test   %rdi,%rdi
    25a3:	74 05                	je     25aa <driver_post+0x12>
    25a5:	80 3f 00             	cmpb   $0x0,(%rdi)
    25a8:	75 33                	jne    25dd <driver_post+0x45>
    25aa:	66 c7 03 4f 4b       	movw   $0x4b4f,(%rbx)
    25af:	c6 43 02 00          	movb   $0x0,0x2(%rbx)
    25b3:	89 c8                	mov    %ecx,%eax
    25b5:	5b                   	pop    %rbx
    25b6:	c3                   	retq   
    25b7:	48 8d 35 e0 05 00 00 	lea    0x5e0(%rip),%rsi        # 2b9e <array.3413+0x31e>
    25be:	bf 01 00 00 00       	mov    $0x1,%edi
    25c3:	b8 00 00 00 00       	mov    $0x0,%eax
    25c8:	e8 33 e9 ff ff       	callq  f00 <__printf_chk@plt>
    25cd:	66 c7 03 4f 4b       	movw   $0x4b4f,(%rbx)
    25d2:	c6 43 02 00          	movb   $0x0,0x2(%rbx)
    25d6:	b8 00 00 00 00       	mov    $0x0,%eax
    25db:	eb d8                	jmp    25b5 <driver_post+0x1d>
    25dd:	41 50                	push   %r8
    25df:	52                   	push   %rdx
    25e0:	4c 8d 0d 9b 05 00 00 	lea    0x59b(%rip),%r9        # 2b82 <array.3413+0x302>
    25e7:	49 89 f0             	mov    %rsi,%r8
    25ea:	48 89 f9             	mov    %rdi,%rcx
    25ed:	48 8d 15 c1 05 00 00 	lea    0x5c1(%rip),%rdx        # 2bb5 <array.3413+0x335>
    25f4:	be 6e 3b 00 00       	mov    $0x3b6e,%esi
    25f9:	48 8d 3d 86 05 00 00 	lea    0x586(%rip),%rdi        # 2b86 <array.3413+0x306>
    2600:	e8 1e f5 ff ff       	callq  1b23 <submitr>
    2605:	48 83 c4 10          	add    $0x10,%rsp
    2609:	eb aa                	jmp    25b5 <driver_post+0x1d>
    260b:	0f 1f 44 00 00       	nopl   0x0(%rax,%rax,1)

0000000000002610 <__libc_csu_init>:
    2610:	41 57                	push   %r15
    2612:	41 56                	push   %r14
    2614:	49 89 d7             	mov    %rdx,%r15
    2617:	41 55                	push   %r13
    2619:	41 54                	push   %r12
    261b:	4c 8d 25 d6 16 20 00 	lea    0x2016d6(%rip),%r12        # 203cf8 <__frame_dummy_init_array_entry>
    2622:	55                   	push   %rbp
    2623:	48 8d 2d d6 16 20 00 	lea    0x2016d6(%rip),%rbp        # 203d00 <__init_array_end>
    262a:	53                   	push   %rbx
    262b:	41 89 fd             	mov    %edi,%r13d
    262e:	49 89 f6             	mov    %rsi,%r14
    2631:	4c 29 e5             	sub    %r12,%rbp
    2634:	48 83 ec 08          	sub    $0x8,%rsp
    2638:	48 c1 fd 03          	sar    $0x3,%rbp
    263c:	e8 8f e7 ff ff       	callq  dd0 <_init>
    2641:	48 85 ed             	test   %rbp,%rbp
    2644:	74 20                	je     2666 <__libc_csu_init+0x56>
    2646:	31 db                	xor    %ebx,%ebx
    2648:	0f 1f 84 00 00 00 00 	nopl   0x0(%rax,%rax,1)
    264f:	00 
    2650:	4c 89 fa             	mov    %r15,%rdx
    2653:	4c 89 f6             	mov    %r14,%rsi
    2656:	44 89 ef             	mov    %r13d,%edi
    2659:	41 ff 14 dc          	callq  *(%r12,%rbx,8)
    265d:	48 83 c3 01          	add    $0x1,%rbx
    2661:	48 39 dd             	cmp    %rbx,%rbp
    2664:	75 ea                	jne    2650 <__libc_csu_init+0x40>
    2666:	48 83 c4 08          	add    $0x8,%rsp
    266a:	5b                   	pop    %rbx
    266b:	5d                   	pop    %rbp
    266c:	41 5c                	pop    %r12
    266e:	41 5d                	pop    %r13
    2670:	41 5e                	pop    %r14
    2672:	41 5f                	pop    %r15
    2674:	c3                   	retq   
    2675:	90                   	nop
    2676:	66 2e 0f 1f 84 00 00 	nopw   %cs:0x0(%rax,%rax,1)
    267d:	00 00 00 

0000000000002680 <__libc_csu_fini>:
    2680:	f3 c3                	repz retq 

Disassembly of section .fini:

0000000000002684 <_fini>:
    2684:	48 83 ec 08          	sub    $0x8,%rsp
    2688:	48 83 c4 08          	add    $0x8,%rsp
    268c:	c3                   	retq   
